In archive libbob.a:

bw_i2c_ui.o:     file format elf32-avr

Sections:
Idx Name          Size      VMA       LMA       File off  Algn
  0 .text         00000000  00000000  00000000  00000034  2**0
                  CONTENTS, ALLOC, LOAD, READONLY, CODE
  1 .data         00000006  00000000  00000000  00000034  2**0
                  CONTENTS, ALLOC, LOAD, DATA
  2 .bss          00000000  00000000  00000000  0000003a  2**0
                  ALLOC
  3 .text.ui_i2c_setup 0000000c  00000000  00000000  0000003a  2**0
                  CONTENTS, ALLOC, LOAD, RELOC, READONLY, CODE
  4 .text.bw_i2c_ui_start 00000026  00000000  00000000  00000046  2**0
                  CONTENTS, ALLOC, LOAD, RELOC, READONLY, CODE
  5 .text.bw_i2c_ui_end 00000002  00000000  00000000  0000006c  2**0
                  CONTENTS, ALLOC, LOAD, READONLY, CODE
  6 .text.bw_i2c_ui_set_cursor 0000004a  00000000  00000000  0000006e  2**0
                  CONTENTS, ALLOC, LOAD, RELOC, READONLY, CODE
  7 .text.bw_i2c_ui_text 0000007c  00000000  00000000  000000b8  2**0
                  CONTENTS, ALLOC, LOAD, RELOC, READONLY, CODE
  8 .text.bw_i2c_ui_text_line_1 00000022  00000000  00000000  00000134  2**0
                  CONTENTS, ALLOC, LOAD, RELOC, READONLY, CODE
  9 .text.bw_i2c_ui_text_line_2 00000022  00000000  00000000  00000156  2**0
                  CONTENTS, ALLOC, LOAD, RELOC, READONLY, CODE
 10 .text.bw_i2c_ui_text_line_3 00000022  00000000  00000000  00000178  2**0
                  CONTENTS, ALLOC, LOAD, RELOC, READONLY, CODE
 11 .text.bw_i2c_ui_text_line_4 00000022  00000000  00000000  0000019a  2**0
                  CONTENTS, ALLOC, LOAD, RELOC, READONLY, CODE
 12 .text.bw_i2c_ui_cls 00000038  00000000  00000000  000001bc  2**0
                  CONTENTS, ALLOC, LOAD, RELOC, READONLY, CODE
 13 .text.bw_i2c_ui_set_contrast 00000036  00000000  00000000  000001f4  2**0
                  CONTENTS, ALLOC, LOAD, RELOC, READONLY, CODE
 14 .text.bw_i2c_ui_set_backlight 00000036  00000000  00000000  0000022a  2**0
                  CONTENTS, ALLOC, LOAD, RELOC, READONLY, CODE
 15 .text.bw_i2c_ui_set_backlight_temp 00000036  00000000  00000000  00000260  2**0
                  CONTENTS, ALLOC, LOAD, RELOC, READONLY, CODE
 16 .text.bw_i2c_ui_set_startup_message_line_1 0000003c  00000000  00000000  00000296  2**0
                  CONTENTS, ALLOC, LOAD, RELOC, READONLY, CODE
 17 .text.bw_i2c_ui_set_startup_message_line_2 00000002  00000000  00000000  000002d2  2**0
                  CONTENTS, ALLOC, LOAD, READONLY, CODE
 18 .text.bw_i2c_ui_set_startup_message_line_3 00000002  00000000  00000000  000002d4  2**0
                  CONTENTS, ALLOC, LOAD, READONLY, CODE
 19 .text.bw_i2c_ui_set_startup_message_line_4 00000002  00000000  00000000  000002d6  2**0
                  CONTENTS, ALLOC, LOAD, READONLY, CODE
 20 .text.bw_i2c_ui_get_backlight 0000004a  00000000  00000000  000002d8  2**0
                  CONTENTS, ALLOC, LOAD, RELOC, READONLY, CODE
 21 .text.bw_i2c_ui_get_contrast 0000004a  00000000  00000000  00000322  2**0
                  CONTENTS, ALLOC, LOAD, RELOC, READONLY, CODE
 22 .text.bw_i2c_ui_reinit 00000042  00000000  00000000  0000036c  2**0
                  CONTENTS, ALLOC, LOAD, RELOC, READONLY, CODE
 23 .text.bw_i2c_ui_read_id 00000082  00000000  00000000  000003ae  2**0
                  CONTENTS, ALLOC, LOAD, RELOC, READONLY, CODE
 24 .text.bw_i2c_ui_read_button 00000056  00000000  00000000  00000430  2**0
                  CONTENTS, ALLOC, LOAD, RELOC, READONLY, CODE
 25 .text.bw_i2c_ui_read_button_last 0000004e  00000000  00000000  00000486  2**0
                  CONTENTS, ALLOC, LOAD, RELOC, READONLY, CODE
 26 .data.i2c_ui_slave_address 00000001  00000000  00000000  000004d4  2**0
                  CONTENTS, ALLOC, LOAD, DATA

Disassembly of section .text.ui_i2c_setup:

00000000 <ui_i2c_setup>:
   0:	80 91 00 00 	lds	r24, 0x0000
   4:	86 95       	lsr	r24
   6:	0e 94 00 00 	call	0	; 0x0 <ui_i2c_setup>
   a:	08 95       	ret

Disassembly of section .text.bw_i2c_ui_start:

00000000 <bw_i2c_ui_start>:
   0:	df 93       	push	r29
   2:	cf 93       	push	r28
   4:	0f 92       	push	r0
   6:	cd b7       	in	r28, 0x3d	; 61
   8:	de b7       	in	r29, 0x3e	; 62
   a:	89 83       	std	Y+1, r24	; 0x01
   c:	0e 94 00 00 	call	0	; 0x0 <bw_i2c_ui_start>
  10:	89 81       	ldd	r24, Y+1	; 0x01
  12:	88 23       	and	r24, r24
  14:	01 f4       	brne	.+0      	; 0x16 <bw_i2c_ui_start+0x16>
  16:	84 e9       	ldi	r24, 0x94	; 148
  18:	80 93 00 00 	sts	0x0000, r24
  1c:	80 e0       	ldi	r24, 0x00	; 0
  1e:	0f 90       	pop	r0
  20:	cf 91       	pop	r28
  22:	df 91       	pop	r29
  24:	08 95       	ret

Disassembly of section .text.bw_i2c_ui_end:

00000000 <bw_i2c_ui_end>:
   0:	08 95       	ret

Disassembly of section .text.bw_i2c_ui_set_cursor:

00000000 <bw_i2c_ui_set_cursor>:
   0:	df 93       	push	r29
   2:	cf 93       	push	r28
   4:	00 d0       	rcall	.+0      	; 0x6 <bw_i2c_ui_set_cursor+0x6>
   6:	cd b7       	in	r28, 0x3d	; 61
   8:	de b7       	in	r29, 0x3e	; 62
   a:	91 e1       	ldi	r25, 0x11	; 17
   c:	99 83       	std	Y+1, r25	; 0x01
   e:	88 23       	and	r24, r24
  10:	01 f0       	breq	.+0      	; 0x12 <bw_i2c_ui_set_cursor+0x12>
  12:	90 e2       	ldi	r25, 0x20	; 32
  14:	00 c0       	rjmp	.+0      	; 0x16 <bw_i2c_ui_set_cursor+0x16>
  16:	90 e0       	ldi	r25, 0x00	; 0
  18:	81 e0       	ldi	r24, 0x01	; 1
  1a:	66 23       	and	r22, r22
  1c:	01 f4       	brne	.+0      	; 0x1e <bw_i2c_ui_set_cursor+0x1e>
  1e:	80 e0       	ldi	r24, 0x00	; 0
  20:	89 2b       	or	r24, r25
  22:	8a 83       	std	Y+2, r24	; 0x02
  24:	0e 94 00 00 	call	0	; 0x0 <bw_i2c_ui_set_cursor>
  28:	ce 01       	movw	r24, r28
  2a:	01 96       	adiw	r24, 0x01	; 1
  2c:	42 e0       	ldi	r20, 0x02	; 2
  2e:	50 e0       	ldi	r21, 0x00	; 0
  30:	60 e0       	ldi	r22, 0x00	; 0
  32:	70 e0       	ldi	r23, 0x00	; 0
  34:	0e 94 00 00 	call	0	; 0x0 <bw_i2c_ui_set_cursor>
  38:	8a e4       	ldi	r24, 0x4A	; 74
  3a:	8a 95       	dec	r24
  3c:	01 f4       	brne	.+0      	; 0x3e <bw_i2c_ui_set_cursor+0x3e>
  3e:	00 c0       	rjmp	.+0      	; 0x40 <bw_i2c_ui_set_cursor+0x40>
  40:	0f 90       	pop	r0
  42:	0f 90       	pop	r0
  44:	cf 91       	pop	r28
  46:	df 91       	pop	r29
  48:	08 95       	ret

Disassembly of section .text.bw_i2c_ui_text:

00000000 <bw_i2c_ui_text>:
   0:	1f 93       	push	r17
   2:	df 93       	push	r29
   4:	cf 93       	push	r28
   6:	cd b7       	in	r28, 0x3d	; 61
   8:	de b7       	in	r29, 0x3e	; 62
   a:	61 97       	sbiw	r28, 0x11	; 17
   c:	0f b6       	in	r0, 0x3f	; 63
   e:	f8 94       	cli
  10:	de bf       	out	0x3e, r29	; 62
  12:	0f be       	out	0x3f, r0	; 63
  14:	cd bf       	out	0x3d, r28	; 61
  16:	fe 01       	movw	r30, r28
  18:	31 96       	adiw	r30, 0x01	; 1
  1a:	21 e1       	ldi	r18, 0x11	; 17
  1c:	df 01       	movw	r26, r30
  1e:	1d 92       	st	X+, r1
  20:	2a 95       	dec	r18
  22:	01 f4       	brne	.+0      	; 0x24 <bw_i2c_ui_text+0x24>
  24:	16 2f       	mov	r17, r22
  26:	61 31       	cpi	r22, 0x11	; 17
  28:	00 f0       	brcs	.+0      	; 0x2a <bw_i2c_ui_text+0x2a>
  2a:	10 e1       	ldi	r17, 0x10	; 16
  2c:	dc 01       	movw	r26, r24
  2e:	fe 01       	movw	r30, r28
  30:	32 96       	adiw	r30, 0x02	; 2
  32:	cf 01       	movw	r24, r30
  34:	81 0f       	add	r24, r17
  36:	91 1d       	adc	r25, r1
  38:	00 c0       	rjmp	.+0      	; 0x3a <bw_i2c_ui_text+0x3a>
  3a:	2d 91       	ld	r18, X+
  3c:	21 93       	st	Z+, r18
  3e:	e8 17       	cp	r30, r24
  40:	f9 07       	cpc	r31, r25
  42:	01 f4       	brne	.+0      	; 0x44 <bw_i2c_ui_text+0x44>
  44:	0e 94 00 00 	call	0	; 0x0 <bw_i2c_ui_text>
  48:	41 2f       	mov	r20, r17
  4a:	50 e0       	ldi	r21, 0x00	; 0
  4c:	4f 5f       	subi	r20, 0xFF	; 255
  4e:	5f 4f       	sbci	r21, 0xFF	; 255
  50:	66 27       	eor	r22, r22
  52:	57 fd       	sbrc	r21, 7
  54:	60 95       	com	r22
  56:	76 2f       	mov	r23, r22
  58:	ce 01       	movw	r24, r28
  5a:	01 96       	adiw	r24, 0x01	; 1
  5c:	0e 94 00 00 	call	0	; 0x0 <bw_i2c_ui_text>
  60:	ba e4       	ldi	r27, 0x4A	; 74
  62:	ba 95       	dec	r27
  64:	01 f4       	brne	.+0      	; 0x66 <bw_i2c_ui_text+0x66>
  66:	00 c0       	rjmp	.+0      	; 0x68 <bw_i2c_ui_text+0x68>
  68:	61 96       	adiw	r28, 0x11	; 17
  6a:	0f b6       	in	r0, 0x3f	; 63
  6c:	f8 94       	cli
  6e:	de bf       	out	0x3e, r29	; 62
  70:	0f be       	out	0x3f, r0	; 63
  72:	cd bf       	out	0x3d, r28	; 61
  74:	cf 91       	pop	r28
  76:	df 91       	pop	r29
  78:	1f 91       	pop	r17
  7a:	08 95       	ret

Disassembly of section .text.bw_i2c_ui_text_line_1:

00000000 <bw_i2c_ui_text_line_1>:
   0:	1f 93       	push	r17
   2:	cf 93       	push	r28
   4:	df 93       	push	r29
   6:	ec 01       	movw	r28, r24
   8:	16 2f       	mov	r17, r22
   a:	80 e0       	ldi	r24, 0x00	; 0
   c:	60 e0       	ldi	r22, 0x00	; 0
   e:	0e 94 00 00 	call	0	; 0x0 <bw_i2c_ui_text_line_1>
  12:	ce 01       	movw	r24, r28
  14:	61 2f       	mov	r22, r17
  16:	0e 94 00 00 	call	0	; 0x0 <bw_i2c_ui_text_line_1>
  1a:	df 91       	pop	r29
  1c:	cf 91       	pop	r28
  1e:	1f 91       	pop	r17
  20:	08 95       	ret

Disassembly of section .text.bw_i2c_ui_text_line_2:

00000000 <bw_i2c_ui_text_line_2>:
   0:	1f 93       	push	r17
   2:	cf 93       	push	r28
   4:	df 93       	push	r29
   6:	ec 01       	movw	r28, r24
   8:	16 2f       	mov	r17, r22
   a:	81 e0       	ldi	r24, 0x01	; 1
   c:	60 e0       	ldi	r22, 0x00	; 0
   e:	0e 94 00 00 	call	0	; 0x0 <bw_i2c_ui_text_line_2>
  12:	ce 01       	movw	r24, r28
  14:	61 2f       	mov	r22, r17
  16:	0e 94 00 00 	call	0	; 0x0 <bw_i2c_ui_text_line_2>
  1a:	df 91       	pop	r29
  1c:	cf 91       	pop	r28
  1e:	1f 91       	pop	r17
  20:	08 95       	ret

Disassembly of section .text.bw_i2c_ui_text_line_3:

00000000 <bw_i2c_ui_text_line_3>:
   0:	1f 93       	push	r17
   2:	cf 93       	push	r28
   4:	df 93       	push	r29
   6:	ec 01       	movw	r28, r24
   8:	16 2f       	mov	r17, r22
   a:	82 e0       	ldi	r24, 0x02	; 2
   c:	60 e0       	ldi	r22, 0x00	; 0
   e:	0e 94 00 00 	call	0	; 0x0 <bw_i2c_ui_text_line_3>
  12:	ce 01       	movw	r24, r28
  14:	61 2f       	mov	r22, r17
  16:	0e 94 00 00 	call	0	; 0x0 <bw_i2c_ui_text_line_3>
  1a:	df 91       	pop	r29
  1c:	cf 91       	pop	r28
  1e:	1f 91       	pop	r17
  20:	08 95       	ret

Disassembly of section .text.bw_i2c_ui_text_line_4:

00000000 <bw_i2c_ui_text_line_4>:
   0:	1f 93       	push	r17
   2:	cf 93       	push	r28
   4:	df 93       	push	r29
   6:	ec 01       	movw	r28, r24
   8:	16 2f       	mov	r17, r22
   a:	83 e0       	ldi	r24, 0x03	; 3
   c:	60 e0       	ldi	r22, 0x00	; 0
   e:	0e 94 00 00 	call	0	; 0x0 <bw_i2c_ui_text_line_4>
  12:	ce 01       	movw	r24, r28
  14:	61 2f       	mov	r22, r17
  16:	0e 94 00 00 	call	0	; 0x0 <bw_i2c_ui_text_line_4>
  1a:	df 91       	pop	r29
  1c:	cf 91       	pop	r28
  1e:	1f 91       	pop	r17
  20:	08 95       	ret

Disassembly of section .text.bw_i2c_ui_cls:

00000000 <bw_i2c_ui_cls>:
   0:	df 93       	push	r29
   2:	cf 93       	push	r28
   4:	00 d0       	rcall	.+0      	; 0x6 <bw_i2c_ui_cls+0x6>
   6:	cd b7       	in	r28, 0x3d	; 61
   8:	de b7       	in	r29, 0x3e	; 62
   a:	80 e1       	ldi	r24, 0x10	; 16
   c:	89 83       	std	Y+1, r24	; 0x01
   e:	80 e2       	ldi	r24, 0x20	; 32
  10:	8a 83       	std	Y+2, r24	; 0x02
  12:	0e 94 00 00 	call	0	; 0x0 <bw_i2c_ui_cls>
  16:	ce 01       	movw	r24, r28
  18:	01 96       	adiw	r24, 0x01	; 1
  1a:	42 e0       	ldi	r20, 0x02	; 2
  1c:	50 e0       	ldi	r21, 0x00	; 0
  1e:	60 e0       	ldi	r22, 0x00	; 0
  20:	70 e0       	ldi	r23, 0x00	; 0
  22:	0e 94 00 00 	call	0	; 0x0 <bw_i2c_ui_cls>
  26:	8a e4       	ldi	r24, 0x4A	; 74
  28:	8a 95       	dec	r24
  2a:	01 f4       	brne	.+0      	; 0x2c <bw_i2c_ui_cls+0x2c>
  2c:	00 c0       	rjmp	.+0      	; 0x2e <bw_i2c_ui_cls+0x2e>
  2e:	0f 90       	pop	r0
  30:	0f 90       	pop	r0
  32:	cf 91       	pop	r28
  34:	df 91       	pop	r29
  36:	08 95       	ret

Disassembly of section .text.bw_i2c_ui_set_contrast:

00000000 <bw_i2c_ui_set_contrast>:
   0:	df 93       	push	r29
   2:	cf 93       	push	r28
   4:	00 d0       	rcall	.+0      	; 0x6 <bw_i2c_ui_set_contrast+0x6>
   6:	cd b7       	in	r28, 0x3d	; 61
   8:	de b7       	in	r29, 0x3e	; 62
   a:	92 e1       	ldi	r25, 0x12	; 18
   c:	99 83       	std	Y+1, r25	; 0x01
   e:	8a 83       	std	Y+2, r24	; 0x02
  10:	0e 94 00 00 	call	0	; 0x0 <bw_i2c_ui_set_contrast>
  14:	ce 01       	movw	r24, r28
  16:	01 96       	adiw	r24, 0x01	; 1
  18:	42 e0       	ldi	r20, 0x02	; 2
  1a:	50 e0       	ldi	r21, 0x00	; 0
  1c:	60 e0       	ldi	r22, 0x00	; 0
  1e:	70 e0       	ldi	r23, 0x00	; 0
  20:	0e 94 00 00 	call	0	; 0x0 <bw_i2c_ui_set_contrast>
  24:	8a e4       	ldi	r24, 0x4A	; 74
  26:	8a 95       	dec	r24
  28:	01 f4       	brne	.+0      	; 0x2a <bw_i2c_ui_set_contrast+0x2a>
  2a:	00 c0       	rjmp	.+0      	; 0x2c <bw_i2c_ui_set_contrast+0x2c>
  2c:	0f 90       	pop	r0
  2e:	0f 90       	pop	r0
  30:	cf 91       	pop	r28
  32:	df 91       	pop	r29
  34:	08 95       	ret

Disassembly of section .text.bw_i2c_ui_set_backlight:

00000000 <bw_i2c_ui_set_backlight>:
   0:	df 93       	push	r29
   2:	cf 93       	push	r28
   4:	00 d0       	rcall	.+0      	; 0x6 <bw_i2c_ui_set_backlight+0x6>
   6:	cd b7       	in	r28, 0x3d	; 61
   8:	de b7       	in	r29, 0x3e	; 62
   a:	97 e1       	ldi	r25, 0x17	; 23
   c:	99 83       	std	Y+1, r25	; 0x01
   e:	8a 83       	std	Y+2, r24	; 0x02
  10:	0e 94 00 00 	call	0	; 0x0 <bw_i2c_ui_set_backlight>
  14:	ce 01       	movw	r24, r28
  16:	01 96       	adiw	r24, 0x01	; 1
  18:	42 e0       	ldi	r20, 0x02	; 2
  1a:	50 e0       	ldi	r21, 0x00	; 0
  1c:	60 e0       	ldi	r22, 0x00	; 0
  1e:	70 e0       	ldi	r23, 0x00	; 0
  20:	0e 94 00 00 	call	0	; 0x0 <bw_i2c_ui_set_backlight>
  24:	8a e4       	ldi	r24, 0x4A	; 74
  26:	8a 95       	dec	r24
  28:	01 f4       	brne	.+0      	; 0x2a <bw_i2c_ui_set_backlight+0x2a>
  2a:	00 c0       	rjmp	.+0      	; 0x2c <bw_i2c_ui_set_backlight+0x2c>
  2c:	0f 90       	pop	r0
  2e:	0f 90       	pop	r0
  30:	cf 91       	pop	r28
  32:	df 91       	pop	r29
  34:	08 95       	ret

Disassembly of section .text.bw_i2c_ui_set_backlight_temp:

00000000 <bw_i2c_ui_set_backlight_temp>:
   0:	df 93       	push	r29
   2:	cf 93       	push	r28
   4:	00 d0       	rcall	.+0      	; 0x6 <bw_i2c_ui_set_backlight_temp+0x6>
   6:	cd b7       	in	r28, 0x3d	; 61
   8:	de b7       	in	r29, 0x3e	; 62
   a:	93 e1       	ldi	r25, 0x13	; 19
   c:	99 83       	std	Y+1, r25	; 0x01
   e:	8a 83       	std	Y+2, r24	; 0x02
  10:	0e 94 00 00 	call	0	; 0x0 <bw_i2c_ui_set_backlight_temp>
  14:	ce 01       	movw	r24, r28
  16:	01 96       	adiw	r24, 0x01	; 1
  18:	42 e0       	ldi	r20, 0x02	; 2
  1a:	50 e0       	ldi	r21, 0x00	; 0
  1c:	60 e0       	ldi	r22, 0x00	; 0
  1e:	70 e0       	ldi	r23, 0x00	; 0
  20:	0e 94 00 00 	call	0	; 0x0 <bw_i2c_ui_set_backlight_temp>
  24:	8a e4       	ldi	r24, 0x4A	; 74
  26:	8a 95       	dec	r24
  28:	01 f4       	brne	.+0      	; 0x2a <bw_i2c_ui_set_backlight_temp+0x2a>
  2a:	00 c0       	rjmp	.+0      	; 0x2c <bw_i2c_ui_set_backlight_temp+0x2c>
  2c:	0f 90       	pop	r0
  2e:	0f 90       	pop	r0
  30:	cf 91       	pop	r28
  32:	df 91       	pop	r29
  34:	08 95       	ret

Disassembly of section .text.bw_i2c_ui_set_startup_message_line_1:

00000000 <bw_i2c_ui_set_startup_message_line_1>:
   0:	df 93       	push	r29
   2:	cf 93       	push	r28
   4:	00 d0       	rcall	.+0      	; 0x6 <bw_i2c_ui_set_startup_message_line_1+0x6>
   6:	cd b7       	in	r28, 0x3d	; 61
   8:	de b7       	in	r29, 0x3e	; 62
   a:	88 e0       	ldi	r24, 0x08	; 8
   c:	89 83       	std	Y+1, r24	; 0x01
   e:	8f ef       	ldi	r24, 0xFF	; 255
  10:	8a 83       	std	Y+2, r24	; 0x02
  12:	66 23       	and	r22, r22
  14:	01 f4       	brne	.+0      	; 0x16 <bw_i2c_ui_set_startup_message_line_1+0x16>
  16:	0e 94 00 00 	call	0	; 0x0 <bw_i2c_ui_set_startup_message_line_1>
  1a:	8a e4       	ldi	r24, 0x4A	; 74
  1c:	8a 95       	dec	r24
  1e:	01 f4       	brne	.+0      	; 0x20 <bw_i2c_ui_set_startup_message_line_1+0x20>
  20:	00 c0       	rjmp	.+0      	; 0x22 <bw_i2c_ui_set_startup_message_line_1+0x22>
  22:	ce 01       	movw	r24, r28
  24:	01 96       	adiw	r24, 0x01	; 1
  26:	42 e0       	ldi	r20, 0x02	; 2
  28:	50 e0       	ldi	r21, 0x00	; 0
  2a:	60 e0       	ldi	r22, 0x00	; 0
  2c:	70 e0       	ldi	r23, 0x00	; 0
  2e:	0e 94 00 00 	call	0	; 0x0 <bw_i2c_ui_set_startup_message_line_1>
  32:	0f 90       	pop	r0
  34:	0f 90       	pop	r0
  36:	cf 91       	pop	r28
  38:	df 91       	pop	r29
  3a:	08 95       	ret

Disassembly of section .text.bw_i2c_ui_set_startup_message_line_2:

00000000 <bw_i2c_ui_set_startup_message_line_2>:
   0:	08 95       	ret

Disassembly of section .text.bw_i2c_ui_set_startup_message_line_3:

00000000 <bw_i2c_ui_set_startup_message_line_3>:
   0:	08 95       	ret

Disassembly of section .text.bw_i2c_ui_set_startup_message_line_4:

00000000 <bw_i2c_ui_set_startup_message_line_4>:
   0:	08 95       	ret

Disassembly of section .text.bw_i2c_ui_get_backlight:

00000000 <bw_i2c_ui_get_backlight>:
   0:	0f 93       	push	r16
   2:	1f 93       	push	r17
   4:	df 93       	push	r29
   6:	cf 93       	push	r28
   8:	0f 92       	push	r0
   a:	cd b7       	in	r28, 0x3d	; 61
   c:	de b7       	in	r29, 0x3e	; 62
   e:	8c 01       	movw	r16, r24
  10:	83 e1       	ldi	r24, 0x13	; 19
  12:	89 83       	std	Y+1, r24	; 0x01
  14:	0e 94 00 00 	call	0	; 0x0 <bw_i2c_ui_get_backlight>
  18:	ce 01       	movw	r24, r28
  1a:	01 96       	adiw	r24, 0x01	; 1
  1c:	41 e0       	ldi	r20, 0x01	; 1
  1e:	50 e0       	ldi	r21, 0x00	; 0
  20:	60 e0       	ldi	r22, 0x00	; 0
  22:	70 e0       	ldi	r23, 0x00	; 0
  24:	0e 94 00 00 	call	0	; 0x0 <bw_i2c_ui_get_backlight>
  28:	8a e4       	ldi	r24, 0x4A	; 74
  2a:	8a 95       	dec	r24
  2c:	01 f4       	brne	.+0      	; 0x2e <bw_i2c_ui_get_backlight+0x2e>
  2e:	00 c0       	rjmp	.+0      	; 0x30 <bw_i2c_ui_get_backlight+0x30>
  30:	c8 01       	movw	r24, r16
  32:	41 e0       	ldi	r20, 0x01	; 1
  34:	50 e0       	ldi	r21, 0x00	; 0
  36:	60 e0       	ldi	r22, 0x00	; 0
  38:	70 e0       	ldi	r23, 0x00	; 0
  3a:	0e 94 00 00 	call	0	; 0x0 <bw_i2c_ui_get_backlight>
  3e:	0f 90       	pop	r0
  40:	cf 91       	pop	r28
  42:	df 91       	pop	r29
  44:	1f 91       	pop	r17
  46:	0f 91       	pop	r16
  48:	08 95       	ret

Disassembly of section .text.bw_i2c_ui_get_contrast:

00000000 <bw_i2c_ui_get_contrast>:
   0:	0f 93       	push	r16
   2:	1f 93       	push	r17
   4:	df 93       	push	r29
   6:	cf 93       	push	r28
   8:	0f 92       	push	r0
   a:	cd b7       	in	r28, 0x3d	; 61
   c:	de b7       	in	r29, 0x3e	; 62
   e:	8c 01       	movw	r16, r24
  10:	82 e1       	ldi	r24, 0x12	; 18
  12:	89 83       	std	Y+1, r24	; 0x01
  14:	0e 94 00 00 	call	0	; 0x0 <bw_i2c_ui_get_contrast>
  18:	ce 01       	movw	r24, r28
  1a:	01 96       	adiw	r24, 0x01	; 1
  1c:	41 e0       	ldi	r20, 0x01	; 1
  1e:	50 e0       	ldi	r21, 0x00	; 0
  20:	60 e0       	ldi	r22, 0x00	; 0
  22:	70 e0       	ldi	r23, 0x00	; 0
  24:	0e 94 00 00 	call	0	; 0x0 <bw_i2c_ui_get_contrast>
  28:	8a e4       	ldi	r24, 0x4A	; 74
  2a:	8a 95       	dec	r24
  2c:	01 f4       	brne	.+0      	; 0x2e <bw_i2c_ui_get_contrast+0x2e>
  2e:	00 c0       	rjmp	.+0      	; 0x30 <bw_i2c_ui_get_contrast+0x30>
  30:	c8 01       	movw	r24, r16
  32:	41 e0       	ldi	r20, 0x01	; 1
  34:	50 e0       	ldi	r21, 0x00	; 0
  36:	60 e0       	ldi	r22, 0x00	; 0
  38:	70 e0       	ldi	r23, 0x00	; 0
  3a:	0e 94 00 00 	call	0	; 0x0 <bw_i2c_ui_get_contrast>
  3e:	0f 90       	pop	r0
  40:	cf 91       	pop	r28
  42:	df 91       	pop	r29
  44:	1f 91       	pop	r17
  46:	0f 91       	pop	r16
  48:	08 95       	ret

Disassembly of section .text.bw_i2c_ui_reinit:

00000000 <bw_i2c_ui_reinit>:
   0:	df 93       	push	r29
   2:	cf 93       	push	r28
   4:	00 d0       	rcall	.+0      	; 0x6 <bw_i2c_ui_reinit+0x6>
   6:	cd b7       	in	r28, 0x3d	; 61
   8:	de b7       	in	r29, 0x3e	; 62
   a:	84 e1       	ldi	r24, 0x14	; 20
   c:	89 83       	std	Y+1, r24	; 0x01
   e:	80 e2       	ldi	r24, 0x20	; 32
  10:	8a 83       	std	Y+2, r24	; 0x02
  12:	0e 94 00 00 	call	0	; 0x0 <bw_i2c_ui_reinit>
  16:	ce 01       	movw	r24, r28
  18:	01 96       	adiw	r24, 0x01	; 1
  1a:	42 e0       	ldi	r20, 0x02	; 2
  1c:	50 e0       	ldi	r21, 0x00	; 0
  1e:	60 e0       	ldi	r22, 0x00	; 0
  20:	70 e0       	ldi	r23, 0x00	; 0
  22:	0e 94 00 00 	call	0	; 0x0 <bw_i2c_ui_reinit>
  26:	8f ef       	ldi	r24, 0xFF	; 255
  28:	99 e6       	ldi	r25, 0x69	; 105
  2a:	a8 e1       	ldi	r26, 0x18	; 24
  2c:	81 50       	subi	r24, 0x01	; 1
  2e:	90 40       	sbci	r25, 0x00	; 0
  30:	a0 40       	sbci	r26, 0x00	; 0
  32:	01 f4       	brne	.+0      	; 0x34 <bw_i2c_ui_reinit+0x34>
  34:	00 c0       	rjmp	.+0      	; 0x36 <bw_i2c_ui_reinit+0x36>
  36:	00 00       	nop
  38:	0f 90       	pop	r0
  3a:	0f 90       	pop	r0
  3c:	cf 91       	pop	r28
  3e:	df 91       	pop	r29
  40:	08 95       	ret

Disassembly of section .text.bw_i2c_ui_read_id:

00000000 <bw_i2c_ui_read_id>:
   0:	0f 93       	push	r16
   2:	1f 93       	push	r17
   4:	df 93       	push	r29
   6:	cf 93       	push	r28
   8:	cd b7       	in	r28, 0x3d	; 61
   a:	de b7       	in	r29, 0x3e	; 62
   c:	65 97       	sbiw	r28, 0x15	; 21
   e:	0f b6       	in	r0, 0x3f	; 63
  10:	f8 94       	cli
  12:	de bf       	out	0x3e, r29	; 62
  14:	0f be       	out	0x3f, r0	; 63
  16:	cd bf       	out	0x3d, r28	; 61
  18:	81 e0       	ldi	r24, 0x01	; 1
  1a:	89 83       	std	Y+1, r24	; 0x01
  1c:	0e 94 00 00 	call	0	; 0x0 <bw_i2c_ui_read_id>
  20:	ce 01       	movw	r24, r28
  22:	01 96       	adiw	r24, 0x01	; 1
  24:	41 e0       	ldi	r20, 0x01	; 1
  26:	50 e0       	ldi	r21, 0x00	; 0
  28:	60 e0       	ldi	r22, 0x00	; 0
  2a:	70 e0       	ldi	r23, 0x00	; 0
  2c:	0e 94 00 00 	call	0	; 0x0 <bw_i2c_ui_read_id>
  30:	8a e4       	ldi	r24, 0x4A	; 74
  32:	8a 95       	dec	r24
  34:	01 f4       	brne	.+0      	; 0x36 <bw_i2c_ui_read_id+0x36>
  36:	00 c0       	rjmp	.+0      	; 0x38 <bw_i2c_ui_read_id+0x38>
  38:	8e 01       	movw	r16, r28
  3a:	0e 5f       	subi	r16, 0xFE	; 254
  3c:	1f 4f       	sbci	r17, 0xFF	; 255
  3e:	c8 01       	movw	r24, r16
  40:	44 e1       	ldi	r20, 0x14	; 20
  42:	50 e0       	ldi	r21, 0x00	; 0
  44:	60 e0       	ldi	r22, 0x00	; 0
  46:	70 e0       	ldi	r23, 0x00	; 0
  48:	0e 94 00 00 	call	0	; 0x0 <bw_i2c_ui_read_id>
  4c:	00 d0       	rcall	.+0      	; 0x4e <bw_i2c_ui_read_id+0x4e>
  4e:	00 d0       	rcall	.+0      	; 0x50 <bw_i2c_ui_read_id+0x50>
  50:	80 e0       	ldi	r24, 0x00	; 0
  52:	90 e0       	ldi	r25, 0x00	; 0
  54:	ed b7       	in	r30, 0x3d	; 61
  56:	fe b7       	in	r31, 0x3e	; 62
  58:	92 83       	std	Z+2, r25	; 0x02
  5a:	81 83       	std	Z+1, r24	; 0x01
  5c:	14 83       	std	Z+4, r17	; 0x04
  5e:	03 83       	std	Z+3, r16	; 0x03
  60:	0e 94 00 00 	call	0	; 0x0 <bw_i2c_ui_read_id>
  64:	0f 90       	pop	r0
  66:	0f 90       	pop	r0
  68:	0f 90       	pop	r0
  6a:	0f 90       	pop	r0
  6c:	65 96       	adiw	r28, 0x15	; 21
  6e:	0f b6       	in	r0, 0x3f	; 63
  70:	f8 94       	cli
  72:	de bf       	out	0x3e, r29	; 62
  74:	0f be       	out	0x3f, r0	; 63
  76:	cd bf       	out	0x3d, r28	; 61
  78:	cf 91       	pop	r28
  7a:	df 91       	pop	r29
  7c:	1f 91       	pop	r17
  7e:	0f 91       	pop	r16
  80:	08 95       	ret

Disassembly of section .text.bw_i2c_ui_read_button:

00000000 <bw_i2c_ui_read_button>:
   0:	df 93       	push	r29
   2:	cf 93       	push	r28
   4:	00 d0       	rcall	.+0      	; 0x6 <bw_i2c_ui_read_button+0x6>
   6:	0f 92       	push	r0
   8:	cd b7       	in	r28, 0x3d	; 61
   a:	de b7       	in	r29, 0x3e	; 62
   c:	86 30       	cpi	r24, 0x06	; 6
   e:	00 f4       	brcc	.+0      	; 0x10 <bw_i2c_ui_read_button+0x10>
  10:	80 5c       	subi	r24, 0xC0	; 192
  12:	8a 83       	std	Y+2, r24	; 0x02
  14:	8f ef       	ldi	r24, 0xFF	; 255
  16:	8b 83       	std	Y+3, r24	; 0x03
  18:	0e 94 00 00 	call	0	; 0x0 <bw_i2c_ui_read_button>
  1c:	ce 01       	movw	r24, r28
  1e:	02 96       	adiw	r24, 0x02	; 2
  20:	42 e0       	ldi	r20, 0x02	; 2
  22:	50 e0       	ldi	r21, 0x00	; 0
  24:	60 e0       	ldi	r22, 0x00	; 0
  26:	70 e0       	ldi	r23, 0x00	; 0
  28:	0e 94 00 00 	call	0	; 0x0 <bw_i2c_ui_read_button>
  2c:	8a e4       	ldi	r24, 0x4A	; 74
  2e:	8a 95       	dec	r24
  30:	01 f4       	brne	.+0      	; 0x32 <bw_i2c_ui_read_button+0x32>
  32:	00 c0       	rjmp	.+0      	; 0x34 <bw_i2c_ui_read_button+0x34>
  34:	ce 01       	movw	r24, r28
  36:	01 96       	adiw	r24, 0x01	; 1
  38:	41 e0       	ldi	r20, 0x01	; 1
  3a:	50 e0       	ldi	r21, 0x00	; 0
  3c:	60 e0       	ldi	r22, 0x00	; 0
  3e:	70 e0       	ldi	r23, 0x00	; 0
  40:	0e 94 00 00 	call	0	; 0x0 <bw_i2c_ui_read_button>
  44:	89 81       	ldd	r24, Y+1	; 0x01
  46:	00 c0       	rjmp	.+0      	; 0x48 <bw_i2c_ui_read_button+0x48>
  48:	80 e0       	ldi	r24, 0x00	; 0
  4a:	0f 90       	pop	r0
  4c:	0f 90       	pop	r0
  4e:	0f 90       	pop	r0
  50:	cf 91       	pop	r28
  52:	df 91       	pop	r29
  54:	08 95       	ret

Disassembly of section .text.bw_i2c_ui_read_button_last:

00000000 <bw_i2c_ui_read_button_last>:
   0:	df 93       	push	r29
   2:	cf 93       	push	r28
   4:	00 d0       	rcall	.+0      	; 0x6 <bw_i2c_ui_read_button_last+0x6>
   6:	0f 92       	push	r0
   8:	cd b7       	in	r28, 0x3d	; 61
   a:	de b7       	in	r29, 0x3e	; 62
   c:	81 e3       	ldi	r24, 0x31	; 49
   e:	8a 83       	std	Y+2, r24	; 0x02
  10:	8f ef       	ldi	r24, 0xFF	; 255
  12:	8b 83       	std	Y+3, r24	; 0x03
  14:	0e 94 00 00 	call	0	; 0x0 <bw_i2c_ui_read_button_last>
  18:	ce 01       	movw	r24, r28
  1a:	02 96       	adiw	r24, 0x02	; 2
  1c:	42 e0       	ldi	r20, 0x02	; 2
  1e:	50 e0       	ldi	r21, 0x00	; 0
  20:	60 e0       	ldi	r22, 0x00	; 0
  22:	70 e0       	ldi	r23, 0x00	; 0
  24:	0e 94 00 00 	call	0	; 0x0 <bw_i2c_ui_read_button_last>
  28:	8a e4       	ldi	r24, 0x4A	; 74
  2a:	8a 95       	dec	r24
  2c:	01 f4       	brne	.+0      	; 0x2e <bw_i2c_ui_read_button_last+0x2e>
  2e:	00 c0       	rjmp	.+0      	; 0x30 <bw_i2c_ui_read_button_last+0x30>
  30:	ce 01       	movw	r24, r28
  32:	01 96       	adiw	r24, 0x01	; 1
  34:	41 e0       	ldi	r20, 0x01	; 1
  36:	50 e0       	ldi	r21, 0x00	; 0
  38:	60 e0       	ldi	r22, 0x00	; 0
  3a:	70 e0       	ldi	r23, 0x00	; 0
  3c:	0e 94 00 00 	call	0	; 0x0 <bw_i2c_ui_read_button_last>
  40:	89 81       	ldd	r24, Y+1	; 0x01
  42:	0f 90       	pop	r0
  44:	0f 90       	pop	r0
  46:	0f 90       	pop	r0
  48:	cf 91       	pop	r28
  4a:	df 91       	pop	r29
  4c:	08 95       	ret

bw_spi_7fets.o:     file format elf32-avr

Sections:
Idx Name          Size      VMA       LMA       File off  Algn
  0 .text         00000000  00000000  00000000  00000034  2**0
                  CONTENTS, ALLOC, LOAD, READONLY, CODE
  1 .data         00000000  00000000  00000000  00000034  2**0
                  CONTENTS, ALLOC, LOAD, DATA
  2 .bss          00000000  00000000  00000000  00000034  2**0
                  ALLOC
  3 .text.bw_spi_7fets_start 0000004c  00000000  00000000  00000034  2**0
                  CONTENTS, ALLOC, LOAD, RELOC, READONLY, CODE
  4 .text.bw_spi_7fets_end 00000002  00000000  00000000  00000080  2**0
                  CONTENTS, ALLOC, LOAD, READONLY, CODE
  5 .text.bw_spi_7fets_output 0000002e  00000000  00000000  00000082  2**0
                  CONTENTS, ALLOC, LOAD, RELOC, READONLY, CODE

Disassembly of section .text.bw_spi_7fets_start:

00000000 <bw_spi_7fets_start>:
   0:	0f 93       	push	r16
   2:	1f 93       	push	r17
   4:	df 93       	push	r29
   6:	cf 93       	push	r28
   8:	00 d0       	rcall	.+0      	; 0xa <bw_spi_7fets_start+0xa>
   a:	0f 92       	push	r0
   c:	cd b7       	in	r28, 0x3d	; 61
   e:	de b7       	in	r29, 0x3e	; 62
  10:	8c 01       	movw	r16, r24
  12:	0e 94 00 00 	call	0	; 0x0 <bw_spi_7fets_start>
  16:	f8 01       	movw	r30, r16
  18:	81 81       	ldd	r24, Z+1	; 0x01
  1a:	88 23       	and	r24, r24
  1c:	01 f4       	brne	.+0      	; 0x1e <bw_spi_7fets_start+0x1e>
  1e:	88 e8       	ldi	r24, 0x88	; 136
  20:	81 83       	std	Z+1, r24	; 0x01
  22:	f8 01       	movw	r30, r16
  24:	81 81       	ldd	r24, Z+1	; 0x01
  26:	89 83       	std	Y+1, r24	; 0x01
  28:	80 e3       	ldi	r24, 0x30	; 48
  2a:	8a 83       	std	Y+2, r24	; 0x02
  2c:	8f e7       	ldi	r24, 0x7F	; 127
  2e:	8b 83       	std	Y+3, r24	; 0x03
  30:	ce 01       	movw	r24, r28
  32:	01 96       	adiw	r24, 0x01	; 1
  34:	63 e0       	ldi	r22, 0x03	; 3
  36:	0e 94 00 00 	call	0	; 0x0 <bw_spi_7fets_start>
  3a:	80 e0       	ldi	r24, 0x00	; 0
  3c:	0f 90       	pop	r0
  3e:	0f 90       	pop	r0
  40:	0f 90       	pop	r0
  42:	cf 91       	pop	r28
  44:	df 91       	pop	r29
  46:	1f 91       	pop	r17
  48:	0f 91       	pop	r16
  4a:	08 95       	ret

Disassembly of section .text.bw_spi_7fets_end:

00000000 <bw_spi_7fets_end>:
   0:	08 95       	ret

Disassembly of section .text.bw_spi_7fets_output:

00000000 <bw_spi_7fets_output>:
   0:	df 93       	push	r29
   2:	cf 93       	push	r28
   4:	00 d0       	rcall	.+0      	; 0x6 <bw_spi_7fets_output+0x6>
   6:	0f 92       	push	r0
   8:	cd b7       	in	r28, 0x3d	; 61
   a:	de b7       	in	r29, 0x3e	; 62
   c:	fc 01       	movw	r30, r24
   e:	81 81       	ldd	r24, Z+1	; 0x01
  10:	89 83       	std	Y+1, r24	; 0x01
  12:	80 e1       	ldi	r24, 0x10	; 16
  14:	8a 83       	std	Y+2, r24	; 0x02
  16:	6b 83       	std	Y+3, r22	; 0x03
  18:	ce 01       	movw	r24, r28
  1a:	01 96       	adiw	r24, 0x01	; 1
  1c:	63 e0       	ldi	r22, 0x03	; 3
  1e:	0e 94 00 00 	call	0	; 0x0 <bw_spi_7fets_output>
  22:	0f 90       	pop	r0
  24:	0f 90       	pop	r0
  26:	0f 90       	pop	r0
  28:	cf 91       	pop	r28
  2a:	df 91       	pop	r29
  2c:	08 95       	ret

bw_spi_dimmer.o:     file format elf32-avr

Sections:
Idx Name          Size      VMA       LMA       File off  Algn
  0 .text         00000000  00000000  00000000  00000034  2**0
                  CONTENTS, ALLOC, LOAD, READONLY, CODE
  1 .data         00000000  00000000  00000000  00000034  2**0
                  CONTENTS, ALLOC, LOAD, DATA
  2 .bss          00000000  00000000  00000000  00000034  2**0
                  ALLOC
  3 .text.bw_spi_dimmer_start 0000001c  00000000  00000000  00000034  2**0
                  CONTENTS, ALLOC, LOAD, RELOC, READONLY, CODE
  4 .text.bw_spi_dimmer_output 0000002e  00000000  00000000  00000050  2**0
                  CONTENTS, ALLOC, LOAD, RELOC, READONLY, CODE
  5 .text.bw_spi_dimmer_end 00000002  00000000  00000000  0000007e  2**0
                  CONTENTS, ALLOC, LOAD, READONLY, CODE

Disassembly of section .text.bw_spi_dimmer_start:

00000000 <bw_spi_dimmer_start>:
   0:	cf 93       	push	r28
   2:	df 93       	push	r29
   4:	ec 01       	movw	r28, r24
   6:	0e 94 00 00 	call	0	; 0x0 <bw_spi_dimmer_start>
   a:	89 81       	ldd	r24, Y+1	; 0x01
   c:	88 23       	and	r24, r24
   e:	01 f4       	brne	.+0      	; 0x10 <bw_spi_dimmer_start+0x10>
  10:	8e e9       	ldi	r24, 0x9E	; 158
  12:	89 83       	std	Y+1, r24	; 0x01
  14:	80 e0       	ldi	r24, 0x00	; 0
  16:	df 91       	pop	r29
  18:	cf 91       	pop	r28
  1a:	08 95       	ret

Disassembly of section .text.bw_spi_dimmer_output:

00000000 <bw_spi_dimmer_output>:
   0:	df 93       	push	r29
   2:	cf 93       	push	r28
   4:	00 d0       	rcall	.+0      	; 0x6 <bw_spi_dimmer_output+0x6>
   6:	0f 92       	push	r0
   8:	cd b7       	in	r28, 0x3d	; 61
   a:	de b7       	in	r29, 0x3e	; 62
   c:	fc 01       	movw	r30, r24
   e:	81 81       	ldd	r24, Z+1	; 0x01
  10:	89 83       	std	Y+1, r24	; 0x01
  12:	80 e1       	ldi	r24, 0x10	; 16
  14:	8a 83       	std	Y+2, r24	; 0x02
  16:	6b 83       	std	Y+3, r22	; 0x03
  18:	ce 01       	movw	r24, r28
  1a:	01 96       	adiw	r24, 0x01	; 1
  1c:	63 e0       	ldi	r22, 0x03	; 3
  1e:	0e 94 00 00 	call	0	; 0x0 <bw_spi_dimmer_output>
  22:	0f 90       	pop	r0
  24:	0f 90       	pop	r0
  26:	0f 90       	pop	r0
  28:	cf 91       	pop	r28
  2a:	df 91       	pop	r29
  2c:	08 95       	ret

Disassembly of section .text.bw_spi_dimmer_end:

00000000 <bw_spi_dimmer_end>:
   0:	08 95       	ret

bw_spi_dio.o:     file format elf32-avr

Sections:
Idx Name          Size      VMA       LMA       File off  Algn
  0 .text         00000000  00000000  00000000  00000034  2**0
                  CONTENTS, ALLOC, LOAD, READONLY, CODE
  1 .data         00000000  00000000  00000000  00000034  2**0
                  CONTENTS, ALLOC, LOAD, DATA
  2 .bss          00000000  00000000  00000000  00000034  2**0
                  ALLOC
  3 .text.bw_spi_dio_start 0000001c  00000000  00000000  00000034  2**0
                  CONTENTS, ALLOC, LOAD, RELOC, READONLY, CODE
  4 .text.bw_spi_dio_end 00000002  00000000  00000000  00000050  2**0
                  CONTENTS, ALLOC, LOAD, READONLY, CODE
  5 .text.bw_spi_dio_fsel_mask 0000002e  00000000  00000000  00000052  2**0
                  CONTENTS, ALLOC, LOAD, RELOC, READONLY, CODE
  6 .text.bw_spi_dio_output 0000002e  00000000  00000000  00000080  2**0
                  CONTENTS, ALLOC, LOAD, RELOC, READONLY, CODE

Disassembly of section .text.bw_spi_dio_start:

00000000 <bw_spi_dio_start>:
   0:	cf 93       	push	r28
   2:	df 93       	push	r29
   4:	ec 01       	movw	r28, r24
   6:	0e 94 00 00 	call	0	; 0x0 <bw_spi_dio_start>
   a:	89 81       	ldd	r24, Y+1	; 0x01
   c:	88 23       	and	r24, r24
   e:	01 f4       	brne	.+0      	; 0x10 <bw_spi_dio_start+0x10>
  10:	84 e8       	ldi	r24, 0x84	; 132
  12:	89 83       	std	Y+1, r24	; 0x01
  14:	80 e0       	ldi	r24, 0x00	; 0
  16:	df 91       	pop	r29
  18:	cf 91       	pop	r28
  1a:	08 95       	ret

Disassembly of section .text.bw_spi_dio_end:

00000000 <bw_spi_dio_end>:
   0:	08 95       	ret

Disassembly of section .text.bw_spi_dio_fsel_mask:

00000000 <bw_spi_dio_fsel_mask>:
   0:	df 93       	push	r29
   2:	cf 93       	push	r28
   4:	00 d0       	rcall	.+0      	; 0x6 <bw_spi_dio_fsel_mask+0x6>
   6:	0f 92       	push	r0
   8:	cd b7       	in	r28, 0x3d	; 61
   a:	de b7       	in	r29, 0x3e	; 62
   c:	fc 01       	movw	r30, r24
   e:	81 81       	ldd	r24, Z+1	; 0x01
  10:	89 83       	std	Y+1, r24	; 0x01
  12:	80 e3       	ldi	r24, 0x30	; 48
  14:	8a 83       	std	Y+2, r24	; 0x02
  16:	6b 83       	std	Y+3, r22	; 0x03
  18:	ce 01       	movw	r24, r28
  1a:	01 96       	adiw	r24, 0x01	; 1
  1c:	63 e0       	ldi	r22, 0x03	; 3
  1e:	0e 94 00 00 	call	0	; 0x0 <bw_spi_dio_fsel_mask>
  22:	0f 90       	pop	r0
  24:	0f 90       	pop	r0
  26:	0f 90       	pop	r0
  28:	cf 91       	pop	r28
  2a:	df 91       	pop	r29
  2c:	08 95       	ret

Disassembly of section .text.bw_spi_dio_output:

00000000 <bw_spi_dio_output>:
   0:	df 93       	push	r29
   2:	cf 93       	push	r28
   4:	00 d0       	rcall	.+0      	; 0x6 <bw_spi_dio_output+0x6>
   6:	0f 92       	push	r0
   8:	cd b7       	in	r28, 0x3d	; 61
   a:	de b7       	in	r29, 0x3e	; 62
   c:	fc 01       	movw	r30, r24
   e:	81 81       	ldd	r24, Z+1	; 0x01
  10:	89 83       	std	Y+1, r24	; 0x01
  12:	80 e1       	ldi	r24, 0x10	; 16
  14:	8a 83       	std	Y+2, r24	; 0x02
  16:	6b 83       	std	Y+3, r22	; 0x03
  18:	ce 01       	movw	r24, r28
  1a:	01 96       	adiw	r24, 0x01	; 1
  1c:	63 e0       	ldi	r22, 0x03	; 3
  1e:	0e 94 00 00 	call	0	; 0x0 <bw_spi_dio_output>
  22:	0f 90       	pop	r0
  24:	0f 90       	pop	r0
  26:	0f 90       	pop	r0
  28:	cf 91       	pop	r28
  2a:	df 91       	pop	r29
  2c:	08 95       	ret

bw_spi_lcd.o:     file format elf32-avr

Sections:
Idx Name          Size      VMA       LMA       File off  Algn
  0 .text         00000000  00000000  00000000  00000034  2**0
                  CONTENTS, ALLOC, LOAD, READONLY, CODE
  1 .data         00000000  00000000  00000000  00000034  2**0
                  CONTENTS, ALLOC, LOAD, DATA
  2 .bss          00000000  00000000  00000000  00000034  2**0
                  ALLOC
  3 .text.bw_spi_lcd_start 0000001c  00000000  00000000  00000034  2**0
                  CONTENTS, ALLOC, LOAD, RELOC, READONLY, CODE
  4 .text.bw_spi_lcd_end 00000002  00000000  00000000  00000050  2**0
                  CONTENTS, ALLOC, LOAD, READONLY, CODE
  5 .text.bw_spi_lcd_set_cursor 00000048  00000000  00000000  00000052  2**0
                  CONTENTS, ALLOC, LOAD, RELOC, READONLY, CODE
  6 .text.bw_spi_lcd_text 00000062  00000000  00000000  0000009a  2**0
                  CONTENTS, ALLOC, LOAD, RELOC, READONLY, CODE
  7 .text.bw_spi_lcd_text_line_1 0000002e  00000000  00000000  000000fc  2**0
                  CONTENTS, ALLOC, LOAD, RELOC, READONLY, CODE
  8 .text.bw_spi_lcd_text_line_2 0000002e  00000000  00000000  0000012a  2**0
                  CONTENTS, ALLOC, LOAD, RELOC, READONLY, CODE
  9 .text.bw_spi_lcd_text_line_3 0000002e  00000000  00000000  00000158  2**0
                  CONTENTS, ALLOC, LOAD, RELOC, READONLY, CODE
 10 .text.bw_spi_lcd_text_line_4 0000002e  00000000  00000000  00000186  2**0
                  CONTENTS, ALLOC, LOAD, RELOC, READONLY, CODE
 11 .text.bw_spi_lcd_cls 00000040  00000000  00000000  000001b4  2**0
                  CONTENTS, ALLOC, LOAD, RELOC, READONLY, CODE
 12 .text.bw_spi_lcd_set_contrast 00000034  00000000  00000000  000001f4  2**0
                  CONTENTS, ALLOC, LOAD, RELOC, READONLY, CODE
 13 .text.bw_spi_lcd_set_backlight 00000034  00000000  00000000  00000228  2**0
                  CONTENTS, ALLOC, LOAD, RELOC, READONLY, CODE
 14 .text.bw_spi_lcd_reinit 00000054  00000000  00000000  0000025c  2**0
                  CONTENTS, ALLOC, LOAD, RELOC, READONLY, CODE
 15 .rodata.C.0.2263 00000003  00000000  00000000  000002b0  2**0
                  CONTENTS, ALLOC, LOAD, READONLY, DATA
 16 .rodata.C.1.2269 00000003  00000000  00000000  000002b3  2**0
                  CONTENTS, ALLOC, LOAD, READONLY, DATA

Disassembly of section .text.bw_spi_lcd_start:

00000000 <bw_spi_lcd_start>:
   0:	cf 93       	push	r28
   2:	df 93       	push	r29
   4:	ec 01       	movw	r28, r24
   6:	0e 94 00 00 	call	0	; 0x0 <bw_spi_lcd_start>
   a:	89 81       	ldd	r24, Y+1	; 0x01
   c:	88 23       	and	r24, r24
   e:	01 f4       	brne	.+0      	; 0x10 <bw_spi_lcd_start+0x10>
  10:	82 e8       	ldi	r24, 0x82	; 130
  12:	89 83       	std	Y+1, r24	; 0x01
  14:	80 e0       	ldi	r24, 0x00	; 0
  16:	df 91       	pop	r29
  18:	cf 91       	pop	r28
  1a:	08 95       	ret

Disassembly of section .text.bw_spi_lcd_end:

00000000 <bw_spi_lcd_end>:
   0:	08 95       	ret

Disassembly of section .text.bw_spi_lcd_set_cursor:

00000000 <bw_spi_lcd_set_cursor>:
   0:	df 93       	push	r29
   2:	cf 93       	push	r28
   4:	00 d0       	rcall	.+0      	; 0x6 <bw_spi_lcd_set_cursor+0x6>
   6:	0f 92       	push	r0
   8:	cd b7       	in	r28, 0x3d	; 61
   a:	de b7       	in	r29, 0x3e	; 62
   c:	21 e1       	ldi	r18, 0x11	; 17
   e:	2a 83       	std	Y+2, r18	; 0x02
  10:	fc 01       	movw	r30, r24
  12:	81 81       	ldd	r24, Z+1	; 0x01
  14:	89 83       	std	Y+1, r24	; 0x01
  16:	66 23       	and	r22, r22
  18:	01 f0       	breq	.+0      	; 0x1a <bw_spi_lcd_set_cursor+0x1a>
  1a:	90 e2       	ldi	r25, 0x20	; 32
  1c:	00 c0       	rjmp	.+0      	; 0x1e <bw_spi_lcd_set_cursor+0x1e>
  1e:	90 e0       	ldi	r25, 0x00	; 0
  20:	81 e0       	ldi	r24, 0x01	; 1
  22:	44 23       	and	r20, r20
  24:	01 f4       	brne	.+0      	; 0x26 <bw_spi_lcd_set_cursor+0x26>
  26:	80 e0       	ldi	r24, 0x00	; 0
  28:	89 2b       	or	r24, r25
  2a:	8b 83       	std	Y+3, r24	; 0x03
  2c:	ce 01       	movw	r24, r28
  2e:	01 96       	adiw	r24, 0x01	; 1
  30:	63 e0       	ldi	r22, 0x03	; 3
  32:	0e 94 00 00 	call	0	; 0x0 <bw_spi_lcd_set_cursor>
  36:	f0 e4       	ldi	r31, 0x40	; 64
  38:	fa 95       	dec	r31
  3a:	01 f4       	brne	.+0      	; 0x3c <bw_spi_lcd_set_cursor+0x3c>
  3c:	0f 90       	pop	r0
  3e:	0f 90       	pop	r0
  40:	0f 90       	pop	r0
  42:	cf 91       	pop	r28
  44:	df 91       	pop	r29
  46:	08 95       	ret

Disassembly of section .text.bw_spi_lcd_text:

00000000 <bw_spi_lcd_text>:
   0:	df 93       	push	r29
   2:	cf 93       	push	r28
   4:	cd b7       	in	r28, 0x3d	; 61
   6:	de b7       	in	r29, 0x3e	; 62
   8:	62 97       	sbiw	r28, 0x12	; 18
   a:	0f b6       	in	r0, 0x3f	; 63
   c:	f8 94       	cli
   e:	de bf       	out	0x3e, r29	; 62
  10:	0f be       	out	0x3f, r0	; 63
  12:	cd bf       	out	0x3d, r28	; 61
  14:	fc 01       	movw	r30, r24
  16:	81 81       	ldd	r24, Z+1	; 0x01
  18:	89 83       	std	Y+1, r24	; 0x01
  1a:	1a 82       	std	Y+2, r1	; 0x02
  1c:	41 31       	cpi	r20, 0x11	; 17
  1e:	00 f0       	brcs	.+0      	; 0x20 <bw_spi_lcd_text+0x20>
  20:	40 e1       	ldi	r20, 0x10	; 16
  22:	86 2f       	mov	r24, r22
  24:	97 2f       	mov	r25, r23
  26:	dc 01       	movw	r26, r24
  28:	fe 01       	movw	r30, r28
  2a:	33 96       	adiw	r30, 0x03	; 3
  2c:	cf 01       	movw	r24, r30
  2e:	84 0f       	add	r24, r20
  30:	91 1d       	adc	r25, r1
  32:	00 c0       	rjmp	.+0      	; 0x34 <bw_spi_lcd_text+0x34>
  34:	2d 91       	ld	r18, X+
  36:	21 93       	st	Z+, r18
  38:	e8 17       	cp	r30, r24
  3a:	f9 07       	cpc	r31, r25
  3c:	01 f4       	brne	.+0      	; 0x3e <bw_spi_lcd_text+0x3e>
  3e:	64 2f       	mov	r22, r20
  40:	6e 5f       	subi	r22, 0xFE	; 254
  42:	ce 01       	movw	r24, r28
  44:	01 96       	adiw	r24, 0x01	; 1
  46:	0e 94 00 00 	call	0	; 0x0 <bw_spi_lcd_text>
  4a:	f0 e4       	ldi	r31, 0x40	; 64
  4c:	fa 95       	dec	r31
  4e:	01 f4       	brne	.+0      	; 0x50 <bw_spi_lcd_text+0x50>
  50:	62 96       	adiw	r28, 0x12	; 18
  52:	0f b6       	in	r0, 0x3f	; 63
  54:	f8 94       	cli
  56:	de bf       	out	0x3e, r29	; 62
  58:	0f be       	out	0x3f, r0	; 63
  5a:	cd bf       	out	0x3d, r28	; 61
  5c:	cf 91       	pop	r28
  5e:	df 91       	pop	r29
  60:	08 95       	ret

Disassembly of section .text.bw_spi_lcd_text_line_1:

00000000 <bw_spi_lcd_text_line_1>:
   0:	ff 92       	push	r15
   2:	0f 93       	push	r16
   4:	1f 93       	push	r17
   6:	cf 93       	push	r28
   8:	df 93       	push	r29
   a:	ec 01       	movw	r28, r24
   c:	8b 01       	movw	r16, r22
   e:	f4 2e       	mov	r15, r20
  10:	60 e0       	ldi	r22, 0x00	; 0
  12:	40 e0       	ldi	r20, 0x00	; 0
  14:	0e 94 00 00 	call	0	; 0x0 <bw_spi_lcd_text_line_1>
  18:	ce 01       	movw	r24, r28
  1a:	b8 01       	movw	r22, r16
  1c:	4f 2d       	mov	r20, r15
  1e:	0e 94 00 00 	call	0	; 0x0 <bw_spi_lcd_text_line_1>
  22:	df 91       	pop	r29
  24:	cf 91       	pop	r28
  26:	1f 91       	pop	r17
  28:	0f 91       	pop	r16
  2a:	ff 90       	pop	r15
  2c:	08 95       	ret

Disassembly of section .text.bw_spi_lcd_text_line_2:

00000000 <bw_spi_lcd_text_line_2>:
   0:	ff 92       	push	r15
   2:	0f 93       	push	r16
   4:	1f 93       	push	r17
   6:	cf 93       	push	r28
   8:	df 93       	push	r29
   a:	ec 01       	movw	r28, r24
   c:	8b 01       	movw	r16, r22
   e:	f4 2e       	mov	r15, r20
  10:	61 e0       	ldi	r22, 0x01	; 1
  12:	40 e0       	ldi	r20, 0x00	; 0
  14:	0e 94 00 00 	call	0	; 0x0 <bw_spi_lcd_text_line_2>
  18:	ce 01       	movw	r24, r28
  1a:	b8 01       	movw	r22, r16
  1c:	4f 2d       	mov	r20, r15
  1e:	0e 94 00 00 	call	0	; 0x0 <bw_spi_lcd_text_line_2>
  22:	df 91       	pop	r29
  24:	cf 91       	pop	r28
  26:	1f 91       	pop	r17
  28:	0f 91       	pop	r16
  2a:	ff 90       	pop	r15
  2c:	08 95       	ret

Disassembly of section .text.bw_spi_lcd_text_line_3:

00000000 <bw_spi_lcd_text_line_3>:
   0:	ff 92       	push	r15
   2:	0f 93       	push	r16
   4:	1f 93       	push	r17
   6:	cf 93       	push	r28
   8:	df 93       	push	r29
   a:	ec 01       	movw	r28, r24
   c:	8b 01       	movw	r16, r22
   e:	f4 2e       	mov	r15, r20
  10:	62 e0       	ldi	r22, 0x02	; 2
  12:	40 e0       	ldi	r20, 0x00	; 0
  14:	0e 94 00 00 	call	0	; 0x0 <bw_spi_lcd_text_line_3>
  18:	ce 01       	movw	r24, r28
  1a:	b8 01       	movw	r22, r16
  1c:	4f 2d       	mov	r20, r15
  1e:	0e 94 00 00 	call	0	; 0x0 <bw_spi_lcd_text_line_3>
  22:	df 91       	pop	r29
  24:	cf 91       	pop	r28
  26:	1f 91       	pop	r17
  28:	0f 91       	pop	r16
  2a:	ff 90       	pop	r15
  2c:	08 95       	ret

Disassembly of section .text.bw_spi_lcd_text_line_4:

00000000 <bw_spi_lcd_text_line_4>:
   0:	ff 92       	push	r15
   2:	0f 93       	push	r16
   4:	1f 93       	push	r17
   6:	cf 93       	push	r28
   8:	df 93       	push	r29
   a:	ec 01       	movw	r28, r24
   c:	8b 01       	movw	r16, r22
   e:	f4 2e       	mov	r15, r20
  10:	63 e0       	ldi	r22, 0x03	; 3
  12:	40 e0       	ldi	r20, 0x00	; 0
  14:	0e 94 00 00 	call	0	; 0x0 <bw_spi_lcd_text_line_4>
  18:	ce 01       	movw	r24, r28
  1a:	b8 01       	movw	r22, r16
  1c:	4f 2d       	mov	r20, r15
  1e:	0e 94 00 00 	call	0	; 0x0 <bw_spi_lcd_text_line_4>
  22:	df 91       	pop	r29
  24:	cf 91       	pop	r28
  26:	1f 91       	pop	r17
  28:	0f 91       	pop	r16
  2a:	ff 90       	pop	r15
  2c:	08 95       	ret

Disassembly of section .text.bw_spi_lcd_cls:

00000000 <bw_spi_lcd_cls>:
   0:	df 93       	push	r29
   2:	cf 93       	push	r28
   4:	00 d0       	rcall	.+0      	; 0x6 <bw_spi_lcd_cls+0x6>
   6:	0f 92       	push	r0
   8:	cd b7       	in	r28, 0x3d	; 61
   a:	de b7       	in	r29, 0x3e	; 62
   c:	de 01       	movw	r26, r28
   e:	11 96       	adiw	r26, 0x01	; 1
  10:	e0 e0       	ldi	r30, 0x00	; 0
  12:	f0 e0       	ldi	r31, 0x00	; 0
  14:	23 e0       	ldi	r18, 0x03	; 3
  16:	01 90       	ld	r0, Z+
  18:	0d 92       	st	X+, r0
  1a:	21 50       	subi	r18, 0x01	; 1
  1c:	01 f4       	brne	.+0      	; 0x1e <bw_spi_lcd_cls+0x1e>
  1e:	fc 01       	movw	r30, r24
  20:	81 81       	ldd	r24, Z+1	; 0x01
  22:	89 83       	std	Y+1, r24	; 0x01
  24:	ce 01       	movw	r24, r28
  26:	01 96       	adiw	r24, 0x01	; 1
  28:	63 e0       	ldi	r22, 0x03	; 3
  2a:	0e 94 00 00 	call	0	; 0x0 <bw_spi_lcd_cls>
  2e:	f0 e4       	ldi	r31, 0x40	; 64
  30:	fa 95       	dec	r31
  32:	01 f4       	brne	.+0      	; 0x34 <bw_spi_lcd_cls+0x34>
  34:	0f 90       	pop	r0
  36:	0f 90       	pop	r0
  38:	0f 90       	pop	r0
  3a:	cf 91       	pop	r28
  3c:	df 91       	pop	r29
  3e:	08 95       	ret

Disassembly of section .text.bw_spi_lcd_set_contrast:

00000000 <bw_spi_lcd_set_contrast>:
   0:	df 93       	push	r29
   2:	cf 93       	push	r28
   4:	00 d0       	rcall	.+0      	; 0x6 <bw_spi_lcd_set_contrast+0x6>
   6:	0f 92       	push	r0
   8:	cd b7       	in	r28, 0x3d	; 61
   a:	de b7       	in	r29, 0x3e	; 62
   c:	27 e1       	ldi	r18, 0x17	; 23
   e:	2a 83       	std	Y+2, r18	; 0x02
  10:	fc 01       	movw	r30, r24
  12:	81 81       	ldd	r24, Z+1	; 0x01
  14:	89 83       	std	Y+1, r24	; 0x01
  16:	6b 83       	std	Y+3, r22	; 0x03
  18:	f0 e4       	ldi	r31, 0x40	; 64
  1a:	fa 95       	dec	r31
  1c:	01 f4       	brne	.+0      	; 0x1e <bw_spi_lcd_set_contrast+0x1e>
  1e:	ce 01       	movw	r24, r28
  20:	01 96       	adiw	r24, 0x01	; 1
  22:	63 e0       	ldi	r22, 0x03	; 3
  24:	0e 94 00 00 	call	0	; 0x0 <bw_spi_lcd_set_contrast>
  28:	0f 90       	pop	r0
  2a:	0f 90       	pop	r0
  2c:	0f 90       	pop	r0
  2e:	cf 91       	pop	r28
  30:	df 91       	pop	r29
  32:	08 95       	ret

Disassembly of section .text.bw_spi_lcd_set_backlight:

00000000 <bw_spi_lcd_set_backlight>:
   0:	df 93       	push	r29
   2:	cf 93       	push	r28
   4:	00 d0       	rcall	.+0      	; 0x6 <bw_spi_lcd_set_backlight+0x6>
   6:	0f 92       	push	r0
   8:	cd b7       	in	r28, 0x3d	; 61
   a:	de b7       	in	r29, 0x3e	; 62
   c:	27 e1       	ldi	r18, 0x17	; 23
   e:	2a 83       	std	Y+2, r18	; 0x02
  10:	fc 01       	movw	r30, r24
  12:	81 81       	ldd	r24, Z+1	; 0x01
  14:	89 83       	std	Y+1, r24	; 0x01
  16:	6b 83       	std	Y+3, r22	; 0x03
  18:	ce 01       	movw	r24, r28
  1a:	01 96       	adiw	r24, 0x01	; 1
  1c:	63 e0       	ldi	r22, 0x03	; 3
  1e:	0e 94 00 00 	call	0	; 0x0 <bw_spi_lcd_set_backlight>
  22:	f0 e4       	ldi	r31, 0x40	; 64
  24:	fa 95       	dec	r31
  26:	01 f4       	brne	.+0      	; 0x28 <bw_spi_lcd_set_backlight+0x28>
  28:	0f 90       	pop	r0
  2a:	0f 90       	pop	r0
  2c:	0f 90       	pop	r0
  2e:	cf 91       	pop	r28
  30:	df 91       	pop	r29
  32:	08 95       	ret

Disassembly of section .text.bw_spi_lcd_reinit:

00000000 <bw_spi_lcd_reinit>:
   0:	df 93       	push	r29
   2:	cf 93       	push	r28
   4:	00 d0       	rcall	.+0      	; 0x6 <bw_spi_lcd_reinit+0x6>
   6:	0f 92       	push	r0
   8:	cd b7       	in	r28, 0x3d	; 61
   a:	de b7       	in	r29, 0x3e	; 62
   c:	de 01       	movw	r26, r28
   e:	11 96       	adiw	r26, 0x01	; 1
  10:	e0 e0       	ldi	r30, 0x00	; 0
  12:	f0 e0       	ldi	r31, 0x00	; 0
  14:	23 e0       	ldi	r18, 0x03	; 3
  16:	01 90       	ld	r0, Z+
  18:	0d 92       	st	X+, r0
  1a:	21 50       	subi	r18, 0x01	; 1
  1c:	01 f4       	brne	.+0      	; 0x1e <bw_spi_lcd_reinit+0x1e>
  1e:	dc 01       	movw	r26, r24
  20:	11 96       	adiw	r26, 0x01	; 1
  22:	8c 91       	ld	r24, X
  24:	89 83       	std	Y+1, r24	; 0x01
  26:	b0 e4       	ldi	r27, 0x40	; 64
  28:	ba 95       	dec	r27
  2a:	01 f4       	brne	.+0      	; 0x2c <bw_spi_lcd_reinit+0x2c>
  2c:	ce 01       	movw	r24, r28
  2e:	01 96       	adiw	r24, 0x01	; 1
  30:	63 e0       	ldi	r22, 0x03	; 3
  32:	0e 94 00 00 	call	0	; 0x0 <bw_spi_lcd_reinit>
  36:	8f ef       	ldi	r24, 0xFF	; 255
  38:	93 ed       	ldi	r25, 0xD3	; 211
  3a:	a0 e3       	ldi	r26, 0x30	; 48
  3c:	81 50       	subi	r24, 0x01	; 1
  3e:	90 40       	sbci	r25, 0x00	; 0
  40:	a0 40       	sbci	r26, 0x00	; 0
  42:	01 f4       	brne	.+0      	; 0x44 <bw_spi_lcd_reinit+0x44>
  44:	00 c0       	rjmp	.+0      	; 0x46 <bw_spi_lcd_reinit+0x46>
  46:	00 00       	nop
  48:	0f 90       	pop	r0
  4a:	0f 90       	pop	r0
  4c:	0f 90       	pop	r0
  4e:	cf 91       	pop	r28
  50:	df 91       	pop	r29
  52:	08 95       	ret

bw_spi_relay.o:     file format elf32-avr

Sections:
Idx Name          Size      VMA       LMA       File off  Algn
  0 .text         00000000  00000000  00000000  00000034  2**0
                  CONTENTS, ALLOC, LOAD, READONLY, CODE
  1 .data         00000000  00000000  00000000  00000034  2**0
                  CONTENTS, ALLOC, LOAD, DATA
  2 .bss          00000000  00000000  00000000  00000034  2**0
                  ALLOC
  3 .text.bw_spi_relay_start 0000004c  00000000  00000000  00000034  2**0
                  CONTENTS, ALLOC, LOAD, RELOC, READONLY, CODE
  4 .text.bw_spi_relay_end 00000002  00000000  00000000  00000080  2**0
                  CONTENTS, ALLOC, LOAD, READONLY, CODE
  5 .text.bw_spi_relay_output 0000002e  00000000  00000000  00000082  2**0
                  CONTENTS, ALLOC, LOAD, RELOC, READONLY, CODE

Disassembly of section .text.bw_spi_relay_start:

00000000 <bw_spi_relay_start>:
   0:	0f 93       	push	r16
   2:	1f 93       	push	r17
   4:	df 93       	push	r29
   6:	cf 93       	push	r28
   8:	00 d0       	rcall	.+0      	; 0xa <bw_spi_relay_start+0xa>
   a:	0f 92       	push	r0
   c:	cd b7       	in	r28, 0x3d	; 61
   e:	de b7       	in	r29, 0x3e	; 62
  10:	8c 01       	movw	r16, r24
  12:	0e 94 00 00 	call	0	; 0x0 <bw_spi_relay_start>
  16:	f8 01       	movw	r30, r16
  18:	81 81       	ldd	r24, Z+1	; 0x01
  1a:	88 23       	and	r24, r24
  1c:	01 f4       	brne	.+0      	; 0x1e <bw_spi_relay_start+0x1e>
  1e:	8e e8       	ldi	r24, 0x8E	; 142
  20:	81 83       	std	Z+1, r24	; 0x01
  22:	f8 01       	movw	r30, r16
  24:	81 81       	ldd	r24, Z+1	; 0x01
  26:	89 83       	std	Y+1, r24	; 0x01
  28:	80 e3       	ldi	r24, 0x30	; 48
  2a:	8a 83       	std	Y+2, r24	; 0x02
  2c:	8f e7       	ldi	r24, 0x7F	; 127
  2e:	8b 83       	std	Y+3, r24	; 0x03
  30:	ce 01       	movw	r24, r28
  32:	01 96       	adiw	r24, 0x01	; 1
  34:	63 e0       	ldi	r22, 0x03	; 3
  36:	0e 94 00 00 	call	0	; 0x0 <bw_spi_relay_start>
  3a:	80 e0       	ldi	r24, 0x00	; 0
  3c:	0f 90       	pop	r0
  3e:	0f 90       	pop	r0
  40:	0f 90       	pop	r0
  42:	cf 91       	pop	r28
  44:	df 91       	pop	r29
  46:	1f 91       	pop	r17
  48:	0f 91       	pop	r16
  4a:	08 95       	ret

Disassembly of section .text.bw_spi_relay_end:

00000000 <bw_spi_relay_end>:
   0:	08 95       	ret

Disassembly of section .text.bw_spi_relay_output:

00000000 <bw_spi_relay_output>:
   0:	df 93       	push	r29
   2:	cf 93       	push	r28
   4:	00 d0       	rcall	.+0      	; 0x6 <bw_spi_relay_output+0x6>
   6:	0f 92       	push	r0
   8:	cd b7       	in	r28, 0x3d	; 61
   a:	de b7       	in	r29, 0x3e	; 62
   c:	fc 01       	movw	r30, r24
   e:	81 81       	ldd	r24, Z+1	; 0x01
  10:	89 83       	std	Y+1, r24	; 0x01
  12:	80 e1       	ldi	r24, 0x10	; 16
  14:	8a 83       	std	Y+2, r24	; 0x02
  16:	6b 83       	std	Y+3, r22	; 0x03
  18:	ce 01       	movw	r24, r28
  1a:	01 96       	adiw	r24, 0x01	; 1
  1c:	63 e0       	ldi	r22, 0x03	; 3
  1e:	0e 94 00 00 	call	0	; 0x0 <bw_spi_relay_output>
  22:	0f 90       	pop	r0
  24:	0f 90       	pop	r0
  26:	0f 90       	pop	r0
  28:	cf 91       	pop	r28
  2a:	df 91       	pop	r29
  2c:	08 95       	ret

mcp23s08.o:     file format elf32-avr

Sections:
Idx Name          Size      VMA       LMA       File off  Algn
  0 .text         00000000  00000000  00000000  00000034  2**0
                  CONTENTS, ALLOC, LOAD, READONLY, CODE
  1 .data         00000000  00000000  00000000  00000034  2**0
                  CONTENTS, ALLOC, LOAD, DATA
  2 .bss          00000000  00000000  00000000  00000034  2**0
                  ALLOC
  3 .text.mcp23s08_end 00000002  00000000  00000000  00000034  2**0
                  CONTENTS, ALLOC, LOAD, READONLY, CODE
  4 .text.mcp23s08_reg_read 00000030  00000000  00000000  00000036  2**0
                  CONTENTS, ALLOC, LOAD, RELOC, READONLY, CODE
  5 .text.mcp23s08_reg_write 00000030  00000000  00000000  00000066  2**0
                  CONTENTS, ALLOC, LOAD, RELOC, READONLY, CODE
  6 .text.mcp23s08_start 0000002a  00000000  00000000  00000096  2**0
                  CONTENTS, ALLOC, LOAD, RELOC, READONLY, CODE
  7 .text.mcp23s08_gpio_fsel 00000044  00000000  00000000  000000c0  2**0
                  CONTENTS, ALLOC, LOAD, RELOC, READONLY, CODE
  8 .text.mcp23s08_gpio_set 00000024  00000000  00000000  00000104  2**0
                  CONTENTS, ALLOC, LOAD, RELOC, READONLY, CODE
  9 .text.mcp23s08_gpio_clr 00000026  00000000  00000000  00000128  2**0
                  CONTENTS, ALLOC, LOAD, RELOC, READONLY, CODE

Disassembly of section .text.mcp23s08_end:

00000000 <mcp23s08_end>:
   0:	08 95       	ret

Disassembly of section .text.mcp23s08_reg_read:

00000000 <mcp23s08_reg_read>:
   0:	df 93       	push	r29
   2:	cf 93       	push	r28
   4:	00 d0       	rcall	.+0      	; 0x6 <mcp23s08_reg_read+0x6>
   6:	0f 92       	push	r0
   8:	cd b7       	in	r28, 0x3d	; 61
   a:	de b7       	in	r29, 0x3e	; 62
   c:	fc 01       	movw	r30, r24
   e:	81 81       	ldd	r24, Z+1	; 0x01
  10:	88 0f       	add	r24, r24
  12:	81 64       	ori	r24, 0x41	; 65
  14:	89 83       	std	Y+1, r24	; 0x01
  16:	6a 83       	std	Y+2, r22	; 0x02
  18:	ce 01       	movw	r24, r28
  1a:	01 96       	adiw	r24, 0x01	; 1
  1c:	63 e0       	ldi	r22, 0x03	; 3
  1e:	0e 94 00 00 	call	0	; 0x0 <mcp23s08_reg_read>
  22:	8b 81       	ldd	r24, Y+3	; 0x03
  24:	0f 90       	pop	r0
  26:	0f 90       	pop	r0
  28:	0f 90       	pop	r0
  2a:	cf 91       	pop	r28
  2c:	df 91       	pop	r29
  2e:	08 95       	ret

Disassembly of section .text.mcp23s08_reg_write:

00000000 <mcp23s08_reg_write>:
   0:	df 93       	push	r29
   2:	cf 93       	push	r28
   4:	00 d0       	rcall	.+0      	; 0x6 <mcp23s08_reg_write+0x6>
   6:	0f 92       	push	r0
   8:	cd b7       	in	r28, 0x3d	; 61
   a:	de b7       	in	r29, 0x3e	; 62
   c:	fc 01       	movw	r30, r24
   e:	81 81       	ldd	r24, Z+1	; 0x01
  10:	88 0f       	add	r24, r24
  12:	80 64       	ori	r24, 0x40	; 64
  14:	89 83       	std	Y+1, r24	; 0x01
  16:	6a 83       	std	Y+2, r22	; 0x02
  18:	4b 83       	std	Y+3, r20	; 0x03
  1a:	ce 01       	movw	r24, r28
  1c:	01 96       	adiw	r24, 0x01	; 1
  1e:	63 e0       	ldi	r22, 0x03	; 3
  20:	0e 94 00 00 	call	0	; 0x0 <mcp23s08_reg_write>
  24:	0f 90       	pop	r0
  26:	0f 90       	pop	r0
  28:	0f 90       	pop	r0
  2a:	cf 91       	pop	r28
  2c:	df 91       	pop	r29
  2e:	08 95       	ret

Disassembly of section .text.mcp23s08_start:

00000000 <mcp23s08_start>:
   0:	cf 93       	push	r28
   2:	df 93       	push	r29
   4:	ec 01       	movw	r28, r24
   6:	0e 94 00 00 	call	0	; 0x0 <mcp23s08_start>
   a:	89 81       	ldd	r24, Y+1	; 0x01
   c:	88 23       	and	r24, r24
   e:	01 f4       	brne	.+0      	; 0x10 <mcp23s08_start+0x10>
  10:	19 82       	std	Y+1, r1	; 0x01
  12:	00 c0       	rjmp	.+0      	; 0x14 <mcp23s08_start+0x14>
  14:	83 70       	andi	r24, 0x03	; 3
  16:	89 83       	std	Y+1, r24	; 0x01
  18:	ce 01       	movw	r24, r28
  1a:	65 e0       	ldi	r22, 0x05	; 5
  1c:	48 e0       	ldi	r20, 0x08	; 8
  1e:	0e 94 00 00 	call	0	; 0x0 <mcp23s08_start>
  22:	80 e0       	ldi	r24, 0x00	; 0
  24:	df 91       	pop	r29
  26:	cf 91       	pop	r28
  28:	08 95       	ret

Disassembly of section .text.mcp23s08_gpio_fsel:

00000000 <mcp23s08_gpio_fsel>:
   0:	ef 92       	push	r14
   2:	ff 92       	push	r15
   4:	1f 93       	push	r17
   6:	df 93       	push	r29
   8:	cf 93       	push	r28
   a:	0f 92       	push	r0
   c:	cd b7       	in	r28, 0x3d	; 61
   e:	de b7       	in	r29, 0x3e	; 62
  10:	7c 01       	movw	r14, r24
  12:	16 2f       	mov	r17, r22
  14:	60 e0       	ldi	r22, 0x00	; 0
  16:	49 83       	std	Y+1, r20	; 0x01
  18:	0e 94 00 00 	call	0	; 0x0 <mcp23s08_gpio_fsel>
  1c:	49 81       	ldd	r20, Y+1	; 0x01
  1e:	44 23       	and	r20, r20
  20:	01 f4       	brne	.+0      	; 0x22 <mcp23s08_gpio_fsel+0x22>
  22:	41 2f       	mov	r20, r17
  24:	40 95       	com	r20
  26:	48 23       	and	r20, r24
  28:	00 c0       	rjmp	.+0      	; 0x2a <mcp23s08_gpio_fsel+0x2a>
  2a:	48 2f       	mov	r20, r24
  2c:	41 2b       	or	r20, r17
  2e:	c7 01       	movw	r24, r14
  30:	60 e0       	ldi	r22, 0x00	; 0
  32:	0e 94 00 00 	call	0	; 0x0 <mcp23s08_gpio_fsel>
  36:	0f 90       	pop	r0
  38:	cf 91       	pop	r28
  3a:	df 91       	pop	r29
  3c:	1f 91       	pop	r17
  3e:	ff 90       	pop	r15
  40:	ef 90       	pop	r14
  42:	08 95       	ret

Disassembly of section .text.mcp23s08_gpio_set:

00000000 <mcp23s08_gpio_set>:
   0:	1f 93       	push	r17
   2:	cf 93       	push	r28
   4:	df 93       	push	r29
   6:	ec 01       	movw	r28, r24
   8:	16 2f       	mov	r17, r22
   a:	6a e0       	ldi	r22, 0x0A	; 10
   c:	0e 94 00 00 	call	0	; 0x0 <mcp23s08_gpio_set>
  10:	48 2f       	mov	r20, r24
  12:	41 2b       	or	r20, r17
  14:	ce 01       	movw	r24, r28
  16:	69 e0       	ldi	r22, 0x09	; 9
  18:	0e 94 00 00 	call	0	; 0x0 <mcp23s08_gpio_set>
  1c:	df 91       	pop	r29
  1e:	cf 91       	pop	r28
  20:	1f 91       	pop	r17
  22:	08 95       	ret

Disassembly of section .text.mcp23s08_gpio_clr:

00000000 <mcp23s08_gpio_clr>:
   0:	1f 93       	push	r17
   2:	cf 93       	push	r28
   4:	df 93       	push	r29
   6:	ec 01       	movw	r28, r24
   8:	16 2f       	mov	r17, r22
   a:	6a e0       	ldi	r22, 0x0A	; 10
   c:	0e 94 00 00 	call	0	; 0x0 <mcp23s08_gpio_clr>
  10:	41 2f       	mov	r20, r17
  12:	40 95       	com	r20
  14:	48 23       	and	r20, r24
  16:	ce 01       	movw	r24, r28
  18:	69 e0       	ldi	r22, 0x09	; 9
  1a:	0e 94 00 00 	call	0	; 0x0 <mcp23s08_gpio_clr>
  1e:	df 91       	pop	r29
  20:	cf 91       	pop	r28
  22:	1f 91       	pop	r17
  24:	08 95       	ret

mcp7941x.o:     file format elf32-avr

Sections:
Idx Name          Size      VMA       LMA       File off  Algn
  0 .text         00000000  00000000  00000000  00000034  2**0
                  CONTENTS, ALLOC, LOAD, READONLY, CODE
  1 .data         00000000  00000000  00000000  00000034  2**0
                  CONTENTS, ALLOC, LOAD, DATA
  2 .bss          00000000  00000000  00000000  00000034  2**0
                  ALLOC
  3 .text.mcp7941x_setup 0000000a  00000000  00000000  00000034  2**0
                  CONTENTS, ALLOC, LOAD, RELOC, READONLY, CODE
  4 .text.mcp7941x_start 00000026  00000000  00000000  0000003e  2**0
                  CONTENTS, ALLOC, LOAD, RELOC, READONLY, CODE
  5 .text.mcp7941x_end 00000002  00000000  00000000  00000064  2**0
                  CONTENTS, ALLOC, LOAD, READONLY, CODE
  6 .text.mcp7941x_get_date_time 0000019c  00000000  00000000  00000066  2**0
                  CONTENTS, ALLOC, LOAD, RELOC, READONLY, CODE
  7 .text.mcp7941x_set_date_time 0000012c  00000000  00000000  00000202  2**0
                  CONTENTS, ALLOC, LOAD, RELOC, READONLY, CODE
  8 .data.i2c_mcp7941x_slave_address 00000001  00000000  00000000  0000032e  2**0
                  CONTENTS, ALLOC, LOAD, DATA

Disassembly of section .text.mcp7941x_setup:

00000000 <mcp7941x_setup>:
   0:	80 91 00 00 	lds	r24, 0x0000
   4:	0e 94 00 00 	call	0	; 0x0 <mcp7941x_setup>
   8:	08 95       	ret

Disassembly of section .text.mcp7941x_start:

00000000 <mcp7941x_start>:
   0:	df 93       	push	r29
   2:	cf 93       	push	r28
   4:	0f 92       	push	r0
   6:	cd b7       	in	r28, 0x3d	; 61
   8:	de b7       	in	r29, 0x3e	; 62
   a:	89 83       	std	Y+1, r24	; 0x01
   c:	0e 94 00 00 	call	0	; 0x0 <mcp7941x_start>
  10:	89 81       	ldd	r24, Y+1	; 0x01
  12:	88 23       	and	r24, r24
  14:	01 f4       	brne	.+0      	; 0x16 <mcp7941x_start+0x16>
  16:	8f e6       	ldi	r24, 0x6F	; 111
  18:	80 93 00 00 	sts	0x0000, r24
  1c:	80 e0       	ldi	r24, 0x00	; 0
  1e:	0f 90       	pop	r0
  20:	cf 91       	pop	r28
  22:	df 91       	pop	r29
  24:	08 95       	ret

Disassembly of section .text.mcp7941x_end:

00000000 <mcp7941x_end>:
   0:	08 95       	ret

Disassembly of section .text.mcp7941x_get_date_time:

00000000 <mcp7941x_get_date_time>:
   0:	ef 92       	push	r14
   2:	ff 92       	push	r15
   4:	0f 93       	push	r16
   6:	1f 93       	push	r17
   8:	df 93       	push	r29
   a:	cf 93       	push	r28
   c:	cd b7       	in	r28, 0x3d	; 61
   e:	de b7       	in	r29, 0x3e	; 62
  10:	28 97       	sbiw	r28, 0x08	; 8
  12:	0f b6       	in	r0, 0x3f	; 63
  14:	f8 94       	cli
  16:	de bf       	out	0x3e, r29	; 62
  18:	0f be       	out	0x3f, r0	; 63
  1a:	cd bf       	out	0x3d, r28	; 61
  1c:	8c 01       	movw	r16, r24
  1e:	19 82       	std	Y+1, r1	; 0x01
  20:	f2 e0       	ldi	r31, 0x02	; 2
  22:	ef 2e       	mov	r14, r31
  24:	f1 2c       	mov	r15, r1
  26:	ec 0e       	add	r14, r28
  28:	fd 1e       	adc	r15, r29
  2a:	87 e0       	ldi	r24, 0x07	; 7
  2c:	f7 01       	movw	r30, r14
  2e:	11 92       	st	Z+, r1
  30:	8a 95       	dec	r24
  32:	01 f4       	brne	.+0      	; 0x34 <mcp7941x_get_date_time+0x34>
  34:	0e 94 00 00 	call	0	; 0x0 <mcp7941x_get_date_time>
  38:	ce 01       	movw	r24, r28
  3a:	01 96       	adiw	r24, 0x01	; 1
  3c:	41 e0       	ldi	r20, 0x01	; 1
  3e:	50 e0       	ldi	r21, 0x00	; 0
  40:	60 e0       	ldi	r22, 0x00	; 0
  42:	70 e0       	ldi	r23, 0x00	; 0
  44:	0e 94 00 00 	call	0	; 0x0 <mcp7941x_get_date_time>
  48:	c7 01       	movw	r24, r14
  4a:	47 e0       	ldi	r20, 0x07	; 7
  4c:	50 e0       	ldi	r21, 0x00	; 0
  4e:	60 e0       	ldi	r22, 0x00	; 0
  50:	70 e0       	ldi	r23, 0x00	; 0
  52:	0e 94 00 00 	call	0	; 0x0 <mcp7941x_get_date_time>
  56:	4a 81       	ldd	r20, Y+2	; 0x02
  58:	50 e0       	ldi	r21, 0x00	; 0
  5a:	9a 01       	movw	r18, r20
  5c:	2f 77       	andi	r18, 0x7F	; 127
  5e:	30 70       	andi	r19, 0x00	; 0
  60:	e4 e0       	ldi	r30, 0x04	; 4
  62:	35 95       	asr	r19
  64:	27 95       	ror	r18
  66:	ea 95       	dec	r30
  68:	01 f4       	brne	.+0      	; 0x6a <mcp7941x_get_date_time+0x6a>
  6a:	c9 01       	movw	r24, r18
  6c:	88 0f       	add	r24, r24
  6e:	99 1f       	adc	r25, r25
  70:	63 e0       	ldi	r22, 0x03	; 3
  72:	22 0f       	add	r18, r18
  74:	33 1f       	adc	r19, r19
  76:	6a 95       	dec	r22
  78:	01 f4       	brne	.+0      	; 0x7a <mcp7941x_get_date_time+0x7a>
  7a:	82 0f       	add	r24, r18
  7c:	93 1f       	adc	r25, r19
  7e:	4f 70       	andi	r20, 0x0F	; 15
  80:	50 70       	andi	r21, 0x00	; 0
  82:	84 0f       	add	r24, r20
  84:	95 1f       	adc	r25, r21
  86:	f8 01       	movw	r30, r16
  88:	91 83       	std	Z+1, r25	; 0x01
  8a:	80 83       	st	Z, r24
  8c:	4b 81       	ldd	r20, Y+3	; 0x03
  8e:	50 e0       	ldi	r21, 0x00	; 0
  90:	9a 01       	movw	r18, r20
  92:	2f 77       	andi	r18, 0x7F	; 127
  94:	30 70       	andi	r19, 0x00	; 0
  96:	04 e0       	ldi	r16, 0x04	; 4
  98:	35 95       	asr	r19
  9a:	27 95       	ror	r18
  9c:	0a 95       	dec	r16
  9e:	01 f4       	brne	.+0      	; 0xa0 <mcp7941x_get_date_time+0xa0>
  a0:	c9 01       	movw	r24, r18
  a2:	88 0f       	add	r24, r24
  a4:	99 1f       	adc	r25, r25
  a6:	b3 e0       	ldi	r27, 0x03	; 3
  a8:	22 0f       	add	r18, r18
  aa:	33 1f       	adc	r19, r19
  ac:	ba 95       	dec	r27
  ae:	01 f4       	brne	.+0      	; 0xb0 <mcp7941x_get_date_time+0xb0>
  b0:	82 0f       	add	r24, r18
  b2:	93 1f       	adc	r25, r19
  b4:	4f 70       	andi	r20, 0x0F	; 15
  b6:	50 70       	andi	r21, 0x00	; 0
  b8:	84 0f       	add	r24, r20
  ba:	95 1f       	adc	r25, r21
  bc:	93 83       	std	Z+3, r25	; 0x03
  be:	82 83       	std	Z+2, r24	; 0x02
  c0:	4c 81       	ldd	r20, Y+4	; 0x04
  c2:	50 e0       	ldi	r21, 0x00	; 0
  c4:	9a 01       	movw	r18, r20
  c6:	2f 73       	andi	r18, 0x3F	; 63
  c8:	30 70       	andi	r19, 0x00	; 0
  ca:	a4 e0       	ldi	r26, 0x04	; 4
  cc:	35 95       	asr	r19
  ce:	27 95       	ror	r18
  d0:	aa 95       	dec	r26
  d2:	01 f4       	brne	.+0      	; 0xd4 <mcp7941x_get_date_time+0xd4>
  d4:	c9 01       	movw	r24, r18
  d6:	88 0f       	add	r24, r24
  d8:	99 1f       	adc	r25, r25
  da:	63 e0       	ldi	r22, 0x03	; 3
  dc:	22 0f       	add	r18, r18
  de:	33 1f       	adc	r19, r19
  e0:	6a 95       	dec	r22
  e2:	01 f4       	brne	.+0      	; 0xe4 <mcp7941x_get_date_time+0xe4>
  e4:	82 0f       	add	r24, r18
  e6:	93 1f       	adc	r25, r19
  e8:	4f 70       	andi	r20, 0x0F	; 15
  ea:	50 70       	andi	r21, 0x00	; 0
  ec:	84 0f       	add	r24, r20
  ee:	95 1f       	adc	r25, r21
  f0:	95 83       	std	Z+5, r25	; 0x05
  f2:	84 83       	std	Z+4, r24	; 0x04
  f4:	8d 81       	ldd	r24, Y+5	; 0x05
  f6:	90 e0       	ldi	r25, 0x00	; 0
  f8:	87 70       	andi	r24, 0x07	; 7
  fa:	90 70       	andi	r25, 0x00	; 0
  fc:	95 87       	std	Z+13, r25	; 0x0d
  fe:	84 87       	std	Z+12, r24	; 0x0c
 100:	4e 81       	ldd	r20, Y+6	; 0x06
 102:	50 e0       	ldi	r21, 0x00	; 0
 104:	9a 01       	movw	r18, r20
 106:	2f 73       	andi	r18, 0x3F	; 63
 108:	30 70       	andi	r19, 0x00	; 0
 10a:	04 e0       	ldi	r16, 0x04	; 4
 10c:	35 95       	asr	r19
 10e:	27 95       	ror	r18
 110:	0a 95       	dec	r16
 112:	01 f4       	brne	.+0      	; 0x114 <mcp7941x_get_date_time+0x114>
 114:	c9 01       	movw	r24, r18
 116:	88 0f       	add	r24, r24
 118:	99 1f       	adc	r25, r25
 11a:	b3 e0       	ldi	r27, 0x03	; 3
 11c:	22 0f       	add	r18, r18
 11e:	33 1f       	adc	r19, r19
 120:	ba 95       	dec	r27
 122:	01 f4       	brne	.+0      	; 0x124 <mcp7941x_get_date_time+0x124>
 124:	82 0f       	add	r24, r18
 126:	93 1f       	adc	r25, r19
 128:	4f 70       	andi	r20, 0x0F	; 15
 12a:	50 70       	andi	r21, 0x00	; 0
 12c:	84 0f       	add	r24, r20
 12e:	95 1f       	adc	r25, r21
 130:	97 83       	std	Z+7, r25	; 0x07
 132:	86 83       	std	Z+6, r24	; 0x06
 134:	4f 81       	ldd	r20, Y+7	; 0x07
 136:	50 e0       	ldi	r21, 0x00	; 0
 138:	9a 01       	movw	r18, r20
 13a:	2f 71       	andi	r18, 0x1F	; 31
 13c:	30 70       	andi	r19, 0x00	; 0
 13e:	a4 e0       	ldi	r26, 0x04	; 4
 140:	35 95       	asr	r19
 142:	27 95       	ror	r18
 144:	aa 95       	dec	r26
 146:	01 f4       	brne	.+0      	; 0x148 <mcp7941x_get_date_time+0x148>
 148:	c9 01       	movw	r24, r18
 14a:	88 0f       	add	r24, r24
 14c:	99 1f       	adc	r25, r25
 14e:	63 e0       	ldi	r22, 0x03	; 3
 150:	22 0f       	add	r18, r18
 152:	33 1f       	adc	r19, r19
 154:	6a 95       	dec	r22
 156:	01 f4       	brne	.+0      	; 0x158 <mcp7941x_get_date_time+0x158>
 158:	82 0f       	add	r24, r18
 15a:	93 1f       	adc	r25, r19
 15c:	4f 70       	andi	r20, 0x0F	; 15
 15e:	50 70       	andi	r21, 0x00	; 0
 160:	84 0f       	add	r24, r20
 162:	95 1f       	adc	r25, r21
 164:	91 87       	std	Z+9, r25	; 0x09
 166:	80 87       	std	Z+8, r24	; 0x08
 168:	28 85       	ldd	r18, Y+8	; 0x08
 16a:	92 2f       	mov	r25, r18
 16c:	92 95       	swap	r25
 16e:	9f 70       	andi	r25, 0x0F	; 15
 170:	8a e0       	ldi	r24, 0x0A	; 10
 172:	98 9f       	mul	r25, r24
 174:	c0 01       	movw	r24, r0
 176:	11 24       	eor	r1, r1
 178:	2f 70       	andi	r18, 0x0F	; 15
 17a:	82 0f       	add	r24, r18
 17c:	91 1d       	adc	r25, r1
 17e:	93 87       	std	Z+11, r25	; 0x0b
 180:	82 87       	std	Z+10, r24	; 0x0a
 182:	28 96       	adiw	r28, 0x08	; 8
 184:	0f b6       	in	r0, 0x3f	; 63
 186:	f8 94       	cli
 188:	de bf       	out	0x3e, r29	; 62
 18a:	0f be       	out	0x3f, r0	; 63
 18c:	cd bf       	out	0x3d, r28	; 61
 18e:	cf 91       	pop	r28
 190:	df 91       	pop	r29
 192:	1f 91       	pop	r17
 194:	0f 91       	pop	r16
 196:	ff 90       	pop	r15
 198:	ef 90       	pop	r14
 19a:	08 95       	ret

Disassembly of section .text.mcp7941x_set_date_time:

00000000 <mcp7941x_set_date_time>:
   0:	8f 92       	push	r8
   2:	9f 92       	push	r9
   4:	af 92       	push	r10
   6:	bf 92       	push	r11
   8:	cf 92       	push	r12
   a:	df 92       	push	r13
   c:	ef 92       	push	r14
   e:	ff 92       	push	r15
  10:	0f 93       	push	r16
  12:	1f 93       	push	r17
  14:	df 93       	push	r29
  16:	cf 93       	push	r28
  18:	cd b7       	in	r28, 0x3d	; 61
  1a:	de b7       	in	r29, 0x3e	; 62
  1c:	28 97       	sbiw	r28, 0x08	; 8
  1e:	0f b6       	in	r0, 0x3f	; 63
  20:	f8 94       	cli
  22:	de bf       	out	0x3e, r29	; 62
  24:	0f be       	out	0x3f, r0	; 63
  26:	cd bf       	out	0x3d, r28	; 61
  28:	dc 01       	movw	r26, r24
  2a:	ed 91       	ld	r30, X+
  2c:	fc 91       	ld	r31, X
  2e:	11 97       	sbiw	r26, 0x01	; 1
  30:	ef 77       	andi	r30, 0x7F	; 127
  32:	f0 70       	andi	r31, 0x00	; 0
  34:	12 96       	adiw	r26, 0x02	; 2
  36:	0d 91       	ld	r16, X+
  38:	1c 91       	ld	r17, X
  3a:	13 97       	sbiw	r26, 0x03	; 3
  3c:	0f 77       	andi	r16, 0x7F	; 127
  3e:	10 70       	andi	r17, 0x00	; 0
  40:	14 96       	adiw	r26, 0x04	; 4
  42:	ed 90       	ld	r14, X+
  44:	fc 90       	ld	r15, X
  46:	15 97       	sbiw	r26, 0x05	; 5
  48:	8f e1       	ldi	r24, 0x1F	; 31
  4a:	e8 22       	and	r14, r24
  4c:	ff 24       	eor	r15, r15
  4e:	16 96       	adiw	r26, 0x06	; 6
  50:	cd 90       	ld	r12, X+
  52:	dc 90       	ld	r13, X
  54:	17 97       	sbiw	r26, 0x07	; 7
  56:	8f e3       	ldi	r24, 0x3F	; 63
  58:	c8 22       	and	r12, r24
  5a:	dd 24       	eor	r13, r13
  5c:	18 96       	adiw	r26, 0x08	; 8
  5e:	ad 90       	ld	r10, X+
  60:	bc 90       	ld	r11, X
  62:	19 97       	sbiw	r26, 0x09	; 9
  64:	8f e1       	ldi	r24, 0x1F	; 31
  66:	a8 22       	and	r10, r24
  68:	bb 24       	eor	r11, r11
  6a:	1a 96       	adiw	r26, 0x0a	; 10
  6c:	8d 90       	ld	r8, X+
  6e:	9c 90       	ld	r9, X
  70:	1b 97       	sbiw	r26, 0x0b	; 11
  72:	1c 96       	adiw	r26, 0x0c	; 12
  74:	8d 91       	ld	r24, X+
  76:	9c 91       	ld	r25, X
  78:	1d 97       	sbiw	r26, 0x0d	; 13
  7a:	87 70       	andi	r24, 0x07	; 7
  7c:	90 70       	andi	r25, 0x00	; 0
  7e:	2a e0       	ldi	r18, 0x0A	; 10
  80:	30 e0       	ldi	r19, 0x00	; 0
  82:	b9 01       	movw	r22, r18
  84:	0e 94 00 00 	call	0	; 0x0 <mcp7941x_set_date_time>
  88:	48 2f       	mov	r20, r24
  8a:	48 60       	ori	r20, 0x08	; 8
  8c:	19 82       	std	Y+1, r1	; 0x01
  8e:	cf 01       	movw	r24, r30
  90:	b9 01       	movw	r22, r18
  92:	0e 94 00 00 	call	0	; 0x0 <mcp7941x_set_date_time>
  96:	62 95       	swap	r22
  98:	60 7f       	andi	r22, 0xF0	; 240
  9a:	68 0f       	add	r22, r24
  9c:	60 68       	ori	r22, 0x80	; 128
  9e:	6a 83       	std	Y+2, r22	; 0x02
  a0:	c8 01       	movw	r24, r16
  a2:	b9 01       	movw	r22, r18
  a4:	0e 94 00 00 	call	0	; 0x0 <mcp7941x_set_date_time>
  a8:	62 95       	swap	r22
  aa:	60 7f       	andi	r22, 0xF0	; 240
  ac:	68 0f       	add	r22, r24
  ae:	6b 83       	std	Y+3, r22	; 0x03
  b0:	c7 01       	movw	r24, r14
  b2:	b9 01       	movw	r22, r18
  b4:	0e 94 00 00 	call	0	; 0x0 <mcp7941x_set_date_time>
  b8:	62 95       	swap	r22
  ba:	60 7f       	andi	r22, 0xF0	; 240
  bc:	68 0f       	add	r22, r24
  be:	6c 83       	std	Y+4, r22	; 0x04
  c0:	4d 83       	std	Y+5, r20	; 0x05
  c2:	c6 01       	movw	r24, r12
  c4:	b9 01       	movw	r22, r18
  c6:	0e 94 00 00 	call	0	; 0x0 <mcp7941x_set_date_time>
  ca:	62 95       	swap	r22
  cc:	60 7f       	andi	r22, 0xF0	; 240
  ce:	68 0f       	add	r22, r24
  d0:	6e 83       	std	Y+6, r22	; 0x06
  d2:	c5 01       	movw	r24, r10
  d4:	b9 01       	movw	r22, r18
  d6:	0e 94 00 00 	call	0	; 0x0 <mcp7941x_set_date_time>
  da:	62 95       	swap	r22
  dc:	60 7f       	andi	r22, 0xF0	; 240
  de:	68 0f       	add	r22, r24
  e0:	6f 83       	std	Y+7, r22	; 0x07
  e2:	c4 01       	movw	r24, r8
  e4:	b9 01       	movw	r22, r18
  e6:	0e 94 00 00 	call	0	; 0x0 <mcp7941x_set_date_time>
  ea:	62 95       	swap	r22
  ec:	60 7f       	andi	r22, 0xF0	; 240
  ee:	68 0f       	add	r22, r24
  f0:	68 87       	std	Y+8, r22	; 0x08
  f2:	0e 94 00 00 	call	0	; 0x0 <mcp7941x_set_date_time>
  f6:	ce 01       	movw	r24, r28
  f8:	01 96       	adiw	r24, 0x01	; 1
  fa:	48 e0       	ldi	r20, 0x08	; 8
  fc:	50 e0       	ldi	r21, 0x00	; 0
  fe:	60 e0       	ldi	r22, 0x00	; 0
 100:	70 e0       	ldi	r23, 0x00	; 0
 102:	0e 94 00 00 	call	0	; 0x0 <mcp7941x_set_date_time>
 106:	28 96       	adiw	r28, 0x08	; 8
 108:	0f b6       	in	r0, 0x3f	; 63
 10a:	f8 94       	cli
 10c:	de bf       	out	0x3e, r29	; 62
 10e:	0f be       	out	0x3f, r0	; 63
 110:	cd bf       	out	0x3d, r28	; 61
 112:	cf 91       	pop	r28
 114:	df 91       	pop	r29
 116:	1f 91       	pop	r17
 118:	0f 91       	pop	r16
 11a:	ff 90       	pop	r15
 11c:	ef 90       	pop	r14
 11e:	df 90       	pop	r13
 120:	cf 90       	pop	r12
 122:	bf 90       	pop	r11
 124:	af 90       	pop	r10
 126:	9f 90       	pop	r9
 128:	8f 90       	pop	r8
 12a:	08 95       	ret
